
Smart Home.elf:     file format elf32-avr

Sections:
Idx Name          Size      VMA       LMA       File off  Algn
  0 .text         000020a6  00000000  00000000  00000094  2**1
                  CONTENTS, ALLOC, LOAD, READONLY, CODE
  1 .data         0000007c  00800060  000020a6  0000213a  2**0
                  CONTENTS, ALLOC, LOAD, DATA
  2 .bss          0000005c  008000dc  008000dc  000021b6  2**0
                  ALLOC
  3 .comment      00000030  00000000  00000000  000021b6  2**0
                  CONTENTS, READONLY
  4 .note.gnu.avr.deviceinfo 0000003c  00000000  00000000  000021e8  2**2
                  CONTENTS, READONLY
  5 .debug_info   000004e6  00000000  00000000  00002224  2**0
                  CONTENTS, READONLY, DEBUGGING
  6 .debug_abbrev 000004a3  00000000  00000000  0000270a  2**0
                  CONTENTS, READONLY, DEBUGGING
  7 .debug_line   00000116  00000000  00000000  00002bad  2**0
                  CONTENTS, READONLY, DEBUGGING
  8 .debug_str    00000196  00000000  00000000  00002cc3  2**0
                  CONTENTS, READONLY, DEBUGGING

Disassembly of section .text:

00000000 <__vectors>:
       0:	0c 94 2a 00 	jmp	0x54	; 0x54 <__ctors_end>
       4:	0c 94 c9 09 	jmp	0x1392	; 0x1392 <__vector_1>
       8:	0c 94 f0 09 	jmp	0x13e0	; 0x13e0 <__vector_2>
       c:	0c 94 17 0a 	jmp	0x142e	; 0x142e <__vector_3>
      10:	0c 94 2e 0c 	jmp	0x185c	; 0x185c <__vector_4>
      14:	0c 94 57 0c 	jmp	0x18ae	; 0x18ae <__vector_5>
      18:	0c 94 53 0b 	jmp	0x16a6	; 0x16a6 <__vector_6>
      1c:	0c 94 7c 0b 	jmp	0x16f8	; 0x16f8 <__vector_7>
      20:	0c 94 a5 0b 	jmp	0x174a	; 0x174a <__vector_8>
      24:	0c 94 ce 0b 	jmp	0x179c	; 0x179c <__vector_9>
      28:	0c 94 a8 0a 	jmp	0x1550	; 0x1550 <__vector_10>
      2c:	0c 94 d1 0a 	jmp	0x15a2	; 0x15a2 <__vector_11>
      30:	0c 94 47 00 	jmp	0x8e	; 0x8e <__bad_interrupt>
      34:	0c 94 b8 0c 	jmp	0x1970	; 0x1970 <__vector_13>
      38:	0c 94 e3 0c 	jmp	0x19c6	; 0x19c6 <__vector_14>
      3c:	0c 94 0c 0d 	jmp	0x1a18	; 0x1a18 <__vector_15>
      40:	0c 94 13 08 	jmp	0x1026	; 0x1026 <__vector_16>
      44:	0c 94 47 00 	jmp	0x8e	; 0x8e <__bad_interrupt>
      48:	0c 94 47 00 	jmp	0x8e	; 0x8e <__bad_interrupt>
      4c:	0c 94 47 00 	jmp	0x8e	; 0x8e <__bad_interrupt>
      50:	0c 94 47 00 	jmp	0x8e	; 0x8e <__bad_interrupt>

00000054 <__ctors_end>:
      54:	11 24       	eor	r1, r1
      56:	1f be       	out	0x3f, r1	; 63
      58:	cf e5       	ldi	r28, 0x5F	; 95
      5a:	d8 e0       	ldi	r29, 0x08	; 8
      5c:	de bf       	out	0x3e, r29	; 62
      5e:	cd bf       	out	0x3d, r28	; 61

00000060 <__do_copy_data>:
      60:	10 e0       	ldi	r17, 0x00	; 0
      62:	a0 e6       	ldi	r26, 0x60	; 96
      64:	b0 e0       	ldi	r27, 0x00	; 0
      66:	e6 ea       	ldi	r30, 0xA6	; 166
      68:	f0 e2       	ldi	r31, 0x20	; 32
      6a:	02 c0       	rjmp	.+4      	; 0x70 <__do_copy_data+0x10>
      6c:	05 90       	lpm	r0, Z+
      6e:	0d 92       	st	X+, r0
      70:	ac 3d       	cpi	r26, 0xDC	; 220
      72:	b1 07       	cpc	r27, r17
      74:	d9 f7       	brne	.-10     	; 0x6c <__do_copy_data+0xc>

00000076 <__do_clear_bss>:
      76:	21 e0       	ldi	r18, 0x01	; 1
      78:	ac ed       	ldi	r26, 0xDC	; 220
      7a:	b0 e0       	ldi	r27, 0x00	; 0
      7c:	01 c0       	rjmp	.+2      	; 0x80 <.do_clear_bss_start>

0000007e <.do_clear_bss_loop>:
      7e:	1d 92       	st	X+, r1

00000080 <.do_clear_bss_start>:
      80:	a8 33       	cpi	r26, 0x38	; 56
      82:	b2 07       	cpc	r27, r18
      84:	e1 f7       	brne	.-8      	; 0x7e <.do_clear_bss_loop>
      86:	0e 94 91 04 	call	0x922	; 0x922 <main>
      8a:	0c 94 51 10 	jmp	0x20a2	; 0x20a2 <_exit>

0000008e <__bad_interrupt>:
      8e:	0c 94 00 00 	jmp	0	; 0x0 <__vectors>

00000092 <DisplayOverLCD>:
      92:	8f 92       	push	r8
      94:	9f 92       	push	r9
      96:	af 92       	push	r10
      98:	bf 92       	push	r11
      9a:	cf 92       	push	r12
      9c:	df 92       	push	r13
      9e:	ef 92       	push	r14
      a0:	ff 92       	push	r15
      a2:	cf 93       	push	r28
      a4:	df 93       	push	r29
      a6:	cf ed       	ldi	r28, 0xDF	; 223
      a8:	d0 e0       	ldi	r29, 0x00	; 0
      aa:	88 81       	ld	r24, Y
      ac:	99 81       	ldd	r25, Y+1	; 0x01
      ae:	0e 94 bf 07 	call	0xf7e	; 0xf7e <TEMPS_ConvertValue>
      b2:	90 e0       	ldi	r25, 0x00	; 0
      b4:	99 83       	std	Y+1, r25	; 0x01
      b6:	88 83       	st	Y, r24
      b8:	8a 81       	ldd	r24, Y+2	; 0x02
      ba:	9b 81       	ldd	r25, Y+3	; 0x03
      bc:	0e 94 4c 07 	call	0xe98	; 0xe98 <LDR_ConvertValue>
      c0:	9b 83       	std	Y+3, r25	; 0x03
      c2:	8a 83       	std	Y+2, r24	; 0x02
      c4:	60 e0       	ldi	r22, 0x00	; 0
      c6:	80 e0       	ldi	r24, 0x00	; 0
      c8:	0e 94 2c 07 	call	0xe58	; 0xe58 <LCD_vSetPosition>
      cc:	88 80       	ld	r8, Y
      ce:	99 80       	ldd	r9, Y+1	; 0x01
      d0:	94 01       	movw	r18, r8
      d2:	40 e0       	ldi	r20, 0x00	; 0
      d4:	50 e0       	ldi	r21, 0x00	; 0
      d6:	60 e0       	ldi	r22, 0x00	; 0
      d8:	70 e0       	ldi	r23, 0x00	; 0
      da:	80 e0       	ldi	r24, 0x00	; 0
      dc:	90 e0       	ldi	r25, 0x00	; 0
      de:	0e 94 37 07 	call	0xe6e	; 0xe6e <LCD_vDispNum>
      e2:	60 e0       	ldi	r22, 0x00	; 0
      e4:	81 e0       	ldi	r24, 0x01	; 1
      e6:	0e 94 2c 07 	call	0xe58	; 0xe58 <LCD_vSetPosition>
      ea:	8a 81       	ldd	r24, Y+2	; 0x02
      ec:	9b 81       	ldd	r25, Y+3	; 0x03
      ee:	9c 01       	movw	r18, r24
      f0:	40 e0       	ldi	r20, 0x00	; 0
      f2:	50 e0       	ldi	r21, 0x00	; 0
      f4:	60 e0       	ldi	r22, 0x00	; 0
      f6:	70 e0       	ldi	r23, 0x00	; 0
      f8:	80 e0       	ldi	r24, 0x00	; 0
      fa:	90 e0       	ldi	r25, 0x00	; 0
      fc:	0e 94 37 07 	call	0xe6e	; 0xe6e <LCD_vDispNum>
     100:	66 e0       	ldi	r22, 0x06	; 6
     102:	81 e0       	ldi	r24, 0x01	; 1
     104:	df 91       	pop	r29
     106:	cf 91       	pop	r28
     108:	ff 90       	pop	r15
     10a:	ef 90       	pop	r14
     10c:	df 90       	pop	r13
     10e:	cf 90       	pop	r12
     110:	bf 90       	pop	r11
     112:	af 90       	pop	r10
     114:	9f 90       	pop	r9
     116:	8f 90       	pop	r8
     118:	0c 94 2c 07 	jmp	0xe58	; 0xe58 <LCD_vSetPosition>

0000011c <toHex>:
     11c:	cf 93       	push	r28
     11e:	98 2f       	mov	r25, r24
     120:	9f 70       	andi	r25, 0x0F	; 15
     122:	82 95       	swap	r24
     124:	8f 70       	andi	r24, 0x0F	; 15
     126:	9c 30       	cpi	r25, 0x0C	; 12
     128:	71 f0       	breq	.+28     	; 0x146 <toHex+0x2a>
     12a:	30 f4       	brcc	.+12     	; 0x138 <toHex+0x1c>
     12c:	9a 30       	cpi	r25, 0x0A	; 10
     12e:	a1 f0       	breq	.+40     	; 0x158 <toHex+0x3c>
     130:	9b 30       	cpi	r25, 0x0B	; 11
     132:	79 f4       	brne	.+30     	; 0x152 <toHex+0x36>
     134:	c2 e4       	ldi	r28, 0x42	; 66
     136:	11 c0       	rjmp	.+34     	; 0x15a <toHex+0x3e>
     138:	9e 30       	cpi	r25, 0x0E	; 14
     13a:	49 f0       	breq	.+18     	; 0x14e <toHex+0x32>
     13c:	30 f0       	brcs	.+12     	; 0x14a <toHex+0x2e>
     13e:	9f 30       	cpi	r25, 0x0F	; 15
     140:	41 f4       	brne	.+16     	; 0x152 <toHex+0x36>
     142:	c6 e4       	ldi	r28, 0x46	; 70
     144:	0a c0       	rjmp	.+20     	; 0x15a <toHex+0x3e>
     146:	c3 e4       	ldi	r28, 0x43	; 67
     148:	08 c0       	rjmp	.+16     	; 0x15a <toHex+0x3e>
     14a:	c4 e4       	ldi	r28, 0x44	; 68
     14c:	06 c0       	rjmp	.+12     	; 0x15a <toHex+0x3e>
     14e:	c5 e4       	ldi	r28, 0x45	; 69
     150:	04 c0       	rjmp	.+8      	; 0x15a <toHex+0x3e>
     152:	c0 e3       	ldi	r28, 0x30	; 48
     154:	c9 0f       	add	r28, r25
     156:	01 c0       	rjmp	.+2      	; 0x15a <toHex+0x3e>
     158:	c1 e4       	ldi	r28, 0x41	; 65
     15a:	8c 30       	cpi	r24, 0x0C	; 12
     15c:	71 f0       	breq	.+28     	; 0x17a <toHex+0x5e>
     15e:	30 f4       	brcc	.+12     	; 0x16c <toHex+0x50>
     160:	8a 30       	cpi	r24, 0x0A	; 10
     162:	99 f0       	breq	.+38     	; 0x18a <toHex+0x6e>
     164:	8b 30       	cpi	r24, 0x0B	; 11
     166:	79 f4       	brne	.+30     	; 0x186 <toHex+0x6a>
     168:	82 e4       	ldi	r24, 0x42	; 66
     16a:	10 c0       	rjmp	.+32     	; 0x18c <toHex+0x70>
     16c:	8e 30       	cpi	r24, 0x0E	; 14
     16e:	49 f0       	breq	.+18     	; 0x182 <toHex+0x66>
     170:	30 f0       	brcs	.+12     	; 0x17e <toHex+0x62>
     172:	8f 30       	cpi	r24, 0x0F	; 15
     174:	41 f4       	brne	.+16     	; 0x186 <toHex+0x6a>
     176:	86 e4       	ldi	r24, 0x46	; 70
     178:	09 c0       	rjmp	.+18     	; 0x18c <toHex+0x70>
     17a:	83 e4       	ldi	r24, 0x43	; 67
     17c:	07 c0       	rjmp	.+14     	; 0x18c <toHex+0x70>
     17e:	84 e4       	ldi	r24, 0x44	; 68
     180:	05 c0       	rjmp	.+10     	; 0x18c <toHex+0x70>
     182:	85 e4       	ldi	r24, 0x45	; 69
     184:	03 c0       	rjmp	.+6      	; 0x18c <toHex+0x70>
     186:	80 5d       	subi	r24, 0xD0	; 208
     188:	01 c0       	rjmp	.+2      	; 0x18c <toHex+0x70>
     18a:	81 e4       	ldi	r24, 0x41	; 65
     18c:	0e 94 b4 04 	call	0x968	; 0x968 <HC_vSendData>
     190:	8c 2f       	mov	r24, r28
     192:	cf 91       	pop	r28
     194:	0c 94 b4 04 	jmp	0x968	; 0x968 <HC_vSendData>

00000198 <Timer0Elapsed_KeyOFF>:
     198:	cf 93       	push	r28
     19a:	80 91 62 00 	lds	r24, 0x0062	; 0x800062 <Home_State>
     19e:	8f 36       	cpi	r24, 0x6F	; 111
     1a0:	09 f4       	brne	.+2      	; 0x1a4 <Timer0Elapsed_KeyOFF+0xc>
     1a2:	46 c0       	rjmp	.+140    	; 0x230 <Timer0Elapsed_KeyOFF+0x98>
     1a4:	40 e0       	ldi	r20, 0x00	; 0
     1a6:	67 e0       	ldi	r22, 0x07	; 7
     1a8:	81 e0       	ldi	r24, 0x01	; 1
     1aa:	0e 94 cd 08 	call	0x119a	; 0x119a <DIO_vSetPinVal>
     1ae:	84 e6       	ldi	r24, 0x64	; 100
     1b0:	80 93 62 00 	sts	0x0062, r24	; 0x800062 <Home_State>
     1b4:	0e 94 6a 0a 	call	0x14d4	; 0x14d4 <TIM0_vTurnOff>
     1b8:	0e 94 23 07 	call	0xe46	; 0xe46 <LCD_vClrDisp>
     1bc:	8f e9       	ldi	r24, 0x9F	; 159
     1be:	9f e0       	ldi	r25, 0x0F	; 15
     1c0:	01 97       	sbiw	r24, 0x01	; 1
     1c2:	f1 f7       	brne	.-4      	; 0x1c0 <Timer0Elapsed_KeyOFF+0x28>
     1c4:	00 c0       	rjmp	.+0      	; 0x1c6 <Timer0Elapsed_KeyOFF+0x2e>
     1c6:	00 00       	nop
     1c8:	86 e7       	ldi	r24, 0x76	; 118
     1ca:	90 e0       	ldi	r25, 0x00	; 0
     1cc:	0e 94 10 07 	call	0xe20	; 0xe20 <LCD_vDispStr>
     1d0:	9f e7       	ldi	r25, 0x7F	; 127
     1d2:	2a e1       	ldi	r18, 0x1A	; 26
     1d4:	86 e0       	ldi	r24, 0x06	; 6
     1d6:	91 50       	subi	r25, 0x01	; 1
     1d8:	20 40       	sbci	r18, 0x00	; 0
     1da:	80 40       	sbci	r24, 0x00	; 0
     1dc:	e1 f7       	brne	.-8      	; 0x1d6 <Timer0Elapsed_KeyOFF+0x3e>
     1de:	00 c0       	rjmp	.+0      	; 0x1e0 <Timer0Elapsed_KeyOFF+0x48>
     1e0:	00 00       	nop
     1e2:	0e 94 23 07 	call	0xe46	; 0xe46 <LCD_vClrDisp>
     1e6:	8f e9       	ldi	r24, 0x9F	; 159
     1e8:	9f e0       	ldi	r25, 0x0F	; 15
     1ea:	01 97       	sbiw	r24, 0x01	; 1
     1ec:	f1 f7       	brne	.-4      	; 0x1ea <Timer0Elapsed_KeyOFF+0x52>
     1ee:	00 c0       	rjmp	.+0      	; 0x1f0 <Timer0Elapsed_KeyOFF+0x58>
     1f0:	00 00       	nop
     1f2:	c3 e0       	ldi	r28, 0x03	; 3
     1f4:	65 e0       	ldi	r22, 0x05	; 5
     1f6:	80 e0       	ldi	r24, 0x00	; 0
     1f8:	0e 94 2c 07 	call	0xe58	; 0xe58 <LCD_vSetPosition>
     1fc:	80 e8       	ldi	r24, 0x80	; 128
     1fe:	90 e0       	ldi	r25, 0x00	; 0
     200:	0e 94 10 07 	call	0xe20	; 0xe20 <LCD_vDispStr>
     204:	9f ef       	ldi	r25, 0xFF	; 255
     206:	20 e7       	ldi	r18, 0x70	; 112
     208:	82 e0       	ldi	r24, 0x02	; 2
     20a:	91 50       	subi	r25, 0x01	; 1
     20c:	20 40       	sbci	r18, 0x00	; 0
     20e:	80 40       	sbci	r24, 0x00	; 0
     210:	e1 f7       	brne	.-8      	; 0x20a <Timer0Elapsed_KeyOFF+0x72>
     212:	00 c0       	rjmp	.+0      	; 0x214 <Timer0Elapsed_KeyOFF+0x7c>
     214:	00 00       	nop
     216:	0e 94 23 07 	call	0xe46	; 0xe46 <LCD_vClrDisp>
     21a:	9f ef       	ldi	r25, 0xFF	; 255
     21c:	20 e7       	ldi	r18, 0x70	; 112
     21e:	82 e0       	ldi	r24, 0x02	; 2
     220:	91 50       	subi	r25, 0x01	; 1
     222:	20 40       	sbci	r18, 0x00	; 0
     224:	80 40       	sbci	r24, 0x00	; 0
     226:	e1 f7       	brne	.-8      	; 0x220 <Timer0Elapsed_KeyOFF+0x88>
     228:	00 c0       	rjmp	.+0      	; 0x22a <Timer0Elapsed_KeyOFF+0x92>
     22a:	00 00       	nop
     22c:	c1 50       	subi	r28, 0x01	; 1
     22e:	11 f7       	brne	.-60     	; 0x1f4 <Timer0Elapsed_KeyOFF+0x5c>
     230:	cf 91       	pop	r28
     232:	08 95       	ret

00000234 <Animation1_LcdPassword>:
     234:	2f e7       	ldi	r18, 0x7F	; 127
     236:	8a e1       	ldi	r24, 0x1A	; 26
     238:	96 e0       	ldi	r25, 0x06	; 6
     23a:	21 50       	subi	r18, 0x01	; 1
     23c:	80 40       	sbci	r24, 0x00	; 0
     23e:	90 40       	sbci	r25, 0x00	; 0
     240:	e1 f7       	brne	.-8      	; 0x23a <Animation1_LcdPassword+0x6>
     242:	00 c0       	rjmp	.+0      	; 0x244 <Animation1_LcdPassword+0x10>
     244:	00 00       	nop
     246:	0e 94 23 07 	call	0xe46	; 0xe46 <LCD_vClrDisp>
     24a:	8f e9       	ldi	r24, 0x9F	; 159
     24c:	9f e0       	ldi	r25, 0x0F	; 15
     24e:	01 97       	sbiw	r24, 0x01	; 1
     250:	f1 f7       	brne	.-4      	; 0x24e <Animation1_LcdPassword+0x1a>
     252:	00 c0       	rjmp	.+0      	; 0x254 <Animation1_LcdPassword+0x20>
     254:	00 00       	nop
     256:	87 e8       	ldi	r24, 0x87	; 135
     258:	90 e0       	ldi	r25, 0x00	; 0
     25a:	0e 94 10 07 	call	0xe20	; 0xe20 <LCD_vDispStr>
     25e:	60 e0       	ldi	r22, 0x00	; 0
     260:	81 e0       	ldi	r24, 0x01	; 1
     262:	0c 94 2c 07 	jmp	0xe58	; 0xe58 <LCD_vSetPosition>

00000266 <StartKeypad>:
     266:	85 b7       	in	r24, 0x35	; 53
     268:	8f 75       	andi	r24, 0x5F	; 95
     26a:	85 bf       	out	0x35, r24	; 53
     26c:	80 91 62 00 	lds	r24, 0x0062	; 0x800062 <Home_State>
     270:	8f 36       	cpi	r24, 0x6F	; 111
     272:	09 f4       	brne	.+2      	; 0x276 <StartKeypad+0x10>
     274:	49 c0       	rjmp	.+146    	; 0x308 <StartKeypad+0xa2>
     276:	41 e0       	ldi	r20, 0x01	; 1
     278:	67 e0       	ldi	r22, 0x07	; 7
     27a:	81 e0       	ldi	r24, 0x01	; 1
     27c:	0e 94 cd 08 	call	0x119a	; 0x119a <DIO_vSetPinVal>
     280:	86 e6       	ldi	r24, 0x66	; 102
     282:	80 93 62 00 	sts	0x0062, r24	; 0x800062 <Home_State>
     286:	60 e0       	ldi	r22, 0x00	; 0
     288:	80 e0       	ldi	r24, 0x00	; 0
     28a:	0e 94 2c 07 	call	0xe58	; 0xe58 <LCD_vSetPosition>
     28e:	87 e9       	ldi	r24, 0x97	; 151
     290:	90 e0       	ldi	r25, 0x00	; 0
     292:	0e 94 10 07 	call	0xe20	; 0xe20 <LCD_vDispStr>
     296:	2f e7       	ldi	r18, 0x7F	; 127
     298:	88 e3       	ldi	r24, 0x38	; 56
     29a:	91 e0       	ldi	r25, 0x01	; 1
     29c:	21 50       	subi	r18, 0x01	; 1
     29e:	80 40       	sbci	r24, 0x00	; 0
     2a0:	90 40       	sbci	r25, 0x00	; 0
     2a2:	e1 f7       	brne	.-8      	; 0x29c <StartKeypad+0x36>
     2a4:	00 c0       	rjmp	.+0      	; 0x2a6 <StartKeypad+0x40>
     2a6:	00 00       	nop
     2a8:	8e e2       	ldi	r24, 0x2E	; 46
     2aa:	0e 94 0e 07 	call	0xe1c	; 0xe1c <LCD_vDispChar>
     2ae:	2f ef       	ldi	r18, 0xFF	; 255
     2b0:	80 e7       	ldi	r24, 0x70	; 112
     2b2:	92 e0       	ldi	r25, 0x02	; 2
     2b4:	21 50       	subi	r18, 0x01	; 1
     2b6:	80 40       	sbci	r24, 0x00	; 0
     2b8:	90 40       	sbci	r25, 0x00	; 0
     2ba:	e1 f7       	brne	.-8      	; 0x2b4 <StartKeypad+0x4e>
     2bc:	00 c0       	rjmp	.+0      	; 0x2be <StartKeypad+0x58>
     2be:	00 00       	nop
     2c0:	8e e2       	ldi	r24, 0x2E	; 46
     2c2:	0e 94 0e 07 	call	0xe1c	; 0xe1c <LCD_vDispChar>
     2c6:	2f ef       	ldi	r18, 0xFF	; 255
     2c8:	80 e7       	ldi	r24, 0x70	; 112
     2ca:	92 e0       	ldi	r25, 0x02	; 2
     2cc:	21 50       	subi	r18, 0x01	; 1
     2ce:	80 40       	sbci	r24, 0x00	; 0
     2d0:	90 40       	sbci	r25, 0x00	; 0
     2d2:	e1 f7       	brne	.-8      	; 0x2cc <StartKeypad+0x66>
     2d4:	00 c0       	rjmp	.+0      	; 0x2d6 <StartKeypad+0x70>
     2d6:	00 00       	nop
     2d8:	8e e2       	ldi	r24, 0x2E	; 46
     2da:	0e 94 0e 07 	call	0xe1c	; 0xe1c <LCD_vDispChar>
     2de:	2f ef       	ldi	r18, 0xFF	; 255
     2e0:	80 e7       	ldi	r24, 0x70	; 112
     2e2:	92 e0       	ldi	r25, 0x02	; 2
     2e4:	21 50       	subi	r18, 0x01	; 1
     2e6:	80 40       	sbci	r24, 0x00	; 0
     2e8:	90 40       	sbci	r25, 0x00	; 0
     2ea:	e1 f7       	brne	.-8      	; 0x2e4 <StartKeypad+0x7e>
     2ec:	00 c0       	rjmp	.+0      	; 0x2ee <StartKeypad+0x88>
     2ee:	00 00       	nop
     2f0:	0e 94 1a 01 	call	0x234	; 0x234 <Animation1_LcdPassword>
     2f4:	0e 94 63 0a 	call	0x14c6	; 0x14c6 <TIM0_vTurnOn>
     2f8:	4c ec       	ldi	r20, 0xCC	; 204
     2fa:	50 e0       	ldi	r21, 0x00	; 0
     2fc:	60 e0       	ldi	r22, 0x00	; 0
     2fe:	70 e0       	ldi	r23, 0x00	; 0
     300:	80 e4       	ldi	r24, 0x40	; 64
     302:	9f e1       	ldi	r25, 0x1F	; 31
     304:	0c 94 70 0a 	jmp	0x14e0	; 0x14e0 <TIM0_vDelayMilli>
     308:	08 95       	ret

0000030a <System_SendFrame>:
     30a:	0f 93       	push	r16
     30c:	1f 93       	push	r17
     30e:	cf 93       	push	r28
     310:	df 93       	push	r29
     312:	83 e5       	ldi	r24, 0x53	; 83
     314:	0e 94 b4 04 	call	0x968	; 0x968 <HC_vSendData>
     318:	8b e2       	ldi	r24, 0x2B	; 43
     31a:	0e 94 b4 04 	call	0x968	; 0x968 <HC_vSendData>
     31e:	8d e2       	ldi	r24, 0x2D	; 45
     320:	0e 94 b4 04 	call	0x968	; 0x968 <HC_vSendData>
     324:	c6 e2       	ldi	r28, 0x26	; 38
     326:	d1 e0       	ldi	r29, 0x01	; 1
     328:	89 81       	ldd	r24, Y+1	; 0x01
     32a:	0e 94 8e 00 	call	0x11c	; 0x11c <toHex>
     32e:	8c e2       	ldi	r24, 0x2C	; 44
     330:	0e 94 b4 04 	call	0x968	; 0x968 <HC_vSendData>
     334:	0f ed       	ldi	r16, 0xDF	; 223
     336:	10 e0       	ldi	r17, 0x00	; 0
     338:	f8 01       	movw	r30, r16
     33a:	80 81       	ld	r24, Z
     33c:	0e 94 8e 00 	call	0x11c	; 0x11c <toHex>
     340:	8c e2       	ldi	r24, 0x2C	; 44
     342:	0e 94 b4 04 	call	0x968	; 0x968 <HC_vSendData>
     346:	8b 81       	ldd	r24, Y+3	; 0x03
     348:	0e 94 8e 00 	call	0x11c	; 0x11c <toHex>
     34c:	8c e2       	ldi	r24, 0x2C	; 44
     34e:	0e 94 b4 04 	call	0x968	; 0x968 <HC_vSendData>
     352:	8d 81       	ldd	r24, Y+5	; 0x05
     354:	0e 94 8e 00 	call	0x11c	; 0x11c <toHex>
     358:	8c e2       	ldi	r24, 0x2C	; 44
     35a:	0e 94 b4 04 	call	0x968	; 0x968 <HC_vSendData>
     35e:	80 e0       	ldi	r24, 0x00	; 0
     360:	0e 94 8e 00 	call	0x11c	; 0x11c <toHex>
     364:	f8 01       	movw	r30, r16
     366:	82 81       	ldd	r24, Z+2	; 0x02
     368:	0e 94 8e 00 	call	0x11c	; 0x11c <toHex>
     36c:	8c e2       	ldi	r24, 0x2C	; 44
     36e:	0e 94 b4 04 	call	0x968	; 0x968 <HC_vSendData>
     372:	8e 81       	ldd	r24, Y+6	; 0x06
     374:	0e 94 8e 00 	call	0x11c	; 0x11c <toHex>
     378:	8c e2       	ldi	r24, 0x2C	; 44
     37a:	0e 94 b4 04 	call	0x968	; 0x968 <HC_vSendData>
     37e:	8c 81       	ldd	r24, Y+4	; 0x04
     380:	0e 94 8e 00 	call	0x11c	; 0x11c <toHex>
     384:	8c e2       	ldi	r24, 0x2C	; 44
     386:	0e 94 b4 04 	call	0x968	; 0x968 <HC_vSendData>
     38a:	88 81       	ld	r24, Y
     38c:	0e 94 8e 00 	call	0x11c	; 0x11c <toHex>
     390:	8c e2       	ldi	r24, 0x2C	; 44
     392:	0e 94 b4 04 	call	0x968	; 0x968 <HC_vSendData>
     396:	8a 81       	ldd	r24, Y+2	; 0x02
     398:	0e 94 8e 00 	call	0x11c	; 0x11c <toHex>
     39c:	80 ea       	ldi	r24, 0xA0	; 160
     39e:	90 e0       	ldi	r25, 0x00	; 0
     3a0:	df 91       	pop	r29
     3a2:	cf 91       	pop	r28
     3a4:	1f 91       	pop	r17
     3a6:	0f 91       	pop	r16
     3a8:	0c 94 b9 04 	jmp	0x972	; 0x972 <HC_vSendString>

000003ac <System_Start>:
     3ac:	1f 93       	push	r17
     3ae:	cf 93       	push	r28
     3b0:	df 93       	push	r29
     3b2:	41 e0       	ldi	r20, 0x01	; 1
     3b4:	60 e0       	ldi	r22, 0x00	; 0
     3b6:	82 e0       	ldi	r24, 0x02	; 2
     3b8:	0e 94 7c 08 	call	0x10f8	; 0x10f8 <DIO_vSetPinDir>
     3bc:	40 e0       	ldi	r20, 0x00	; 0
     3be:	60 e0       	ldi	r22, 0x00	; 0
     3c0:	82 e0       	ldi	r24, 0x02	; 2
     3c2:	0e 94 cd 08 	call	0x119a	; 0x119a <DIO_vSetPinVal>
     3c6:	41 e0       	ldi	r20, 0x01	; 1
     3c8:	62 e0       	ldi	r22, 0x02	; 2
     3ca:	80 e0       	ldi	r24, 0x00	; 0
     3cc:	0e 94 7c 08 	call	0x10f8	; 0x10f8 <DIO_vSetPinDir>
     3d0:	40 e0       	ldi	r20, 0x00	; 0
     3d2:	62 e0       	ldi	r22, 0x02	; 2
     3d4:	80 e0       	ldi	r24, 0x00	; 0
     3d6:	0e 94 cd 08 	call	0x119a	; 0x119a <DIO_vSetPinVal>
     3da:	41 e0       	ldi	r20, 0x01	; 1
     3dc:	67 e0       	ldi	r22, 0x07	; 7
     3de:	81 e0       	ldi	r24, 0x01	; 1
     3e0:	0e 94 7c 08 	call	0x10f8	; 0x10f8 <DIO_vSetPinDir>
     3e4:	40 e0       	ldi	r20, 0x00	; 0
     3e6:	67 e0       	ldi	r22, 0x07	; 7
     3e8:	81 e0       	ldi	r24, 0x01	; 1
     3ea:	0e 94 cd 08 	call	0x119a	; 0x119a <DIO_vSetPinVal>
     3ee:	41 e0       	ldi	r20, 0x01	; 1
     3f0:	67 e0       	ldi	r22, 0x07	; 7
     3f2:	83 e0       	ldi	r24, 0x03	; 3
     3f4:	0e 94 7c 08 	call	0x10f8	; 0x10f8 <DIO_vSetPinDir>
     3f8:	40 e0       	ldi	r20, 0x00	; 0
     3fa:	67 e0       	ldi	r22, 0x07	; 7
     3fc:	83 e0       	ldi	r24, 0x03	; 3
     3fe:	0e 94 cd 08 	call	0x119a	; 0x119a <DIO_vSetPinVal>
     402:	41 e0       	ldi	r20, 0x01	; 1
     404:	61 e0       	ldi	r22, 0x01	; 1
     406:	82 e0       	ldi	r24, 0x02	; 2
     408:	0e 94 7c 08 	call	0x10f8	; 0x10f8 <DIO_vSetPinDir>
     40c:	40 e0       	ldi	r20, 0x00	; 0
     40e:	61 e0       	ldi	r22, 0x01	; 1
     410:	82 e0       	ldi	r24, 0x02	; 2
     412:	0e 94 cd 08 	call	0x119a	; 0x119a <DIO_vSetPinVal>
     416:	41 e0       	ldi	r20, 0x01	; 1
     418:	62 e0       	ldi	r22, 0x02	; 2
     41a:	82 e0       	ldi	r24, 0x02	; 2
     41c:	0e 94 7c 08 	call	0x10f8	; 0x10f8 <DIO_vSetPinDir>
     420:	40 e0       	ldi	r20, 0x00	; 0
     422:	62 e0       	ldi	r22, 0x02	; 2
     424:	82 e0       	ldi	r24, 0x02	; 2
     426:	0e 94 cd 08 	call	0x119a	; 0x119a <DIO_vSetPinVal>
     42a:	41 e0       	ldi	r20, 0x01	; 1
     42c:	63 e0       	ldi	r22, 0x03	; 3
     42e:	82 e0       	ldi	r24, 0x02	; 2
     430:	0e 94 7c 08 	call	0x10f8	; 0x10f8 <DIO_vSetPinDir>
     434:	40 e0       	ldi	r20, 0x00	; 0
     436:	63 e0       	ldi	r22, 0x03	; 3
     438:	82 e0       	ldi	r24, 0x02	; 2
     43a:	0e 94 cd 08 	call	0x119a	; 0x119a <DIO_vSetPinVal>
     43e:	10 e0       	ldi	r17, 0x00	; 0
     440:	c1 2f       	mov	r28, r17
     442:	d0 e0       	ldi	r29, 0x00	; 0
     444:	ce 01       	movw	r24, r28
     446:	0e 94 9d 09 	call	0x133a	; 0x133a <EEPROM_u8Read>
     44a:	81 37       	cpi	r24, 0x71	; 113
     44c:	91 05       	cpc	r25, r1
     44e:	51 f0       	breq	.+20     	; 0x464 <__EEPROM_REGION_LENGTH__+0x64>
     450:	ce 01       	movw	r24, r28
     452:	0e 94 9d 09 	call	0x133a	; 0x133a <EEPROM_u8Read>
     456:	ca 59       	subi	r28, 0x9A	; 154
     458:	df 4f       	sbci	r29, 0xFF	; 255
     45a:	88 83       	st	Y, r24
     45c:	0e 94 b4 04 	call	0x968	; 0x968 <HC_vSendData>
     460:	1f 5f       	subi	r17, 0xFF	; 255
     462:	ee cf       	rjmp	.-36     	; 0x440 <__EEPROM_REGION_LENGTH__+0x40>
     464:	0e 94 9b 07 	call	0xf36	; 0xf36 <SERVO_vInit>
     468:	0e 94 a6 07 	call	0xf4c	; 0xf4c <SERVO_vTurnOn>
     46c:	80 e0       	ldi	r24, 0x00	; 0
     46e:	0e 94 a8 07 	call	0xf50	; 0xf50 <SERVO_vSetState>
     472:	0e 94 98 04 	call	0x930	; 0x930 <DCM_vInit>
     476:	0e 94 9d 04 	call	0x93a	; 0x93a <DCM_vTurnOn>
     47a:	0e 94 a1 04 	call	0x942	; 0x942 <DCM_vSetPWM>
     47e:	60 e0       	ldi	r22, 0x00	; 0
     480:	83 e3       	ldi	r24, 0x33	; 51
     482:	91 e0       	ldi	r25, 0x01	; 1
     484:	0e 94 b4 09 	call	0x1368	; 0x1368 <EXTI_vReg_Func>
     488:	83 e6       	ldi	r24, 0x63	; 99
     48a:	94 e0       	ldi	r25, 0x04	; 4
     48c:	df 91       	pop	r29
     48e:	cf 91       	pop	r28
     490:	1f 91       	pop	r17
     492:	0c 94 b7 04 	jmp	0x96e	; 0x96e <HC_u8ReceiveDataAsync>

00000496 <LedIntensity_AutoControl>:
     496:	80 91 e1 00 	lds	r24, 0x00E1	; 0x8000e1 <channelsValues+0x2>
     49a:	90 91 e2 00 	lds	r25, 0x00E2	; 0x8000e2 <channelsValues+0x3>
     49e:	81 3d       	cpi	r24, 0xD1	; 209
     4a0:	27 e0       	ldi	r18, 0x07	; 7
     4a2:	92 07       	cpc	r25, r18
     4a4:	18 f4       	brcc	.+6      	; 0x4ac <LedIntensity_AutoControl+0x16>
     4a6:	40 e0       	ldi	r20, 0x00	; 0
     4a8:	61 ef       	ldi	r22, 0xF1	; 241
     4aa:	21 c0       	rjmp	.+66     	; 0x4ee <LedIntensity_AutoControl+0x58>
     4ac:	89 3b       	cpi	r24, 0xB9	; 185
     4ae:	2b e0       	ldi	r18, 0x0B	; 11
     4b0:	92 07       	cpc	r25, r18
     4b2:	40 f4       	brcc	.+16     	; 0x4c4 <LedIntensity_AutoControl+0x2e>
     4b4:	40 e0       	ldi	r20, 0x00	; 0
     4b6:	61 ef       	ldi	r22, 0xF1	; 241
     4b8:	82 e0       	ldi	r24, 0x02	; 2
     4ba:	0e 94 1e 09 	call	0x123c	; 0x123c <DIO_vPortVal_Maked>
     4be:	41 e0       	ldi	r20, 0x01	; 1
     4c0:	61 e0       	ldi	r22, 0x01	; 1
     4c2:	0f c0       	rjmp	.+30     	; 0x4e2 <LedIntensity_AutoControl+0x4c>
     4c4:	89 38       	cpi	r24, 0x89	; 137
     4c6:	93 41       	sbci	r25, 0x13	; 19
     4c8:	80 f4       	brcc	.+32     	; 0x4ea <LedIntensity_AutoControl+0x54>
     4ca:	40 e0       	ldi	r20, 0x00	; 0
     4cc:	61 ef       	ldi	r22, 0xF1	; 241
     4ce:	82 e0       	ldi	r24, 0x02	; 2
     4d0:	0e 94 1e 09 	call	0x123c	; 0x123c <DIO_vPortVal_Maked>
     4d4:	41 e0       	ldi	r20, 0x01	; 1
     4d6:	62 e0       	ldi	r22, 0x02	; 2
     4d8:	82 e0       	ldi	r24, 0x02	; 2
     4da:	0e 94 cd 08 	call	0x119a	; 0x119a <DIO_vSetPinVal>
     4de:	41 e0       	ldi	r20, 0x01	; 1
     4e0:	63 e0       	ldi	r22, 0x03	; 3
     4e2:	82 e0       	ldi	r24, 0x02	; 2
     4e4:	0e 94 cd 08 	call	0x119a	; 0x119a <DIO_vSetPinVal>
     4e8:	05 c0       	rjmp	.+10     	; 0x4f4 <LedIntensity_AutoControl+0x5e>
     4ea:	41 e0       	ldi	r20, 0x01	; 1
     4ec:	6e e0       	ldi	r22, 0x0E	; 14
     4ee:	82 e0       	ldi	r24, 0x02	; 2
     4f0:	0e 94 1e 09 	call	0x123c	; 0x123c <DIO_vPortVal_Maked>
     4f4:	67 e0       	ldi	r22, 0x07	; 7
     4f6:	81 e0       	ldi	r24, 0x01	; 1
     4f8:	0c 94 66 09 	jmp	0x12cc	; 0x12cc <DIO_vTogPin>

000004fc <System_WakeUp>:
     4fc:	cf 93       	push	r28
     4fe:	df 93       	push	r29
     500:	cd b7       	in	r28, 0x3d	; 61
     502:	de b7       	in	r29, 0x3e	; 62
     504:	28 97       	sbiw	r28, 0x08	; 8
     506:	0f b6       	in	r0, 0x3f	; 63
     508:	f8 94       	cli
     50a:	de bf       	out	0x3e, r29	; 62
     50c:	0f be       	out	0x3f, r0	; 63
     50e:	cd bf       	out	0x3d, r28	; 61
     510:	0f e6       	ldi	r16, 0x6F	; 111
     512:	85 e6       	ldi	r24, 0x65	; 101
     514:	f8 2e       	mov	r15, r24
     516:	94 e0       	ldi	r25, 0x04	; 4
     518:	e9 2e       	mov	r14, r25
     51a:	88 e0       	ldi	r24, 0x08	; 8
     51c:	ee e6       	ldi	r30, 0x6E	; 110
     51e:	f0 e0       	ldi	r31, 0x00	; 0
     520:	de 01       	movw	r26, r28
     522:	11 96       	adiw	r26, 0x01	; 1
     524:	01 90       	ld	r0, Z+
     526:	0d 92       	st	X+, r0
     528:	8a 95       	dec	r24
     52a:	e1 f7       	brne	.-8      	; 0x524 <System_WakeUp+0x28>
     52c:	80 91 62 00 	lds	r24, 0x0062	; 0x800062 <Home_State>
     530:	86 36       	cpi	r24, 0x66	; 102
     532:	09 f0       	breq	.+2      	; 0x536 <System_WakeUp+0x3a>
     534:	e3 c0       	rjmp	.+454    	; 0x6fc <System_WakeUp+0x200>
     536:	0e 94 d9 04 	call	0x9b2	; 0x9b2 <KeyPad_u8GetPressedKey>
     53a:	18 2f       	mov	r17, r24
     53c:	83 32       	cpi	r24, 0x23	; 35
     53e:	09 f0       	breq	.+2      	; 0x542 <System_WakeUp+0x46>
     540:	b4 c0       	rjmp	.+360    	; 0x6aa <System_WakeUp+0x1ae>
     542:	80 91 65 00 	lds	r24, 0x0065	; 0x800065 <trials>
     546:	81 50       	subi	r24, 0x01	; 1
     548:	80 93 65 00 	sts	0x0065, r24	; 0x800065 <trials>
     54c:	64 ee       	ldi	r22, 0xE4	; 228
     54e:	70 e0       	ldi	r23, 0x00	; 0
     550:	86 e6       	ldi	r24, 0x66	; 102
     552:	90 e0       	ldi	r25, 0x00	; 0
     554:	0e 94 48 10 	call	0x2090	; 0x2090 <strcmp>
     558:	89 2b       	or	r24, r25
     55a:	31 f5       	brne	.+76     	; 0x5a8 <System_WakeUp+0xac>
     55c:	40 e0       	ldi	r20, 0x00	; 0
     55e:	67 e0       	ldi	r22, 0x07	; 7
     560:	81 e0       	ldi	r24, 0x01	; 1
     562:	0e 94 cd 08 	call	0x119a	; 0x119a <DIO_vSetPinVal>
     566:	0e 94 6a 0a 	call	0x14d4	; 0x14d4 <TIM0_vTurnOff>
     56a:	0e 94 23 07 	call	0xe46	; 0xe46 <LCD_vClrDisp>
     56e:	2f ef       	ldi	r18, 0xFF	; 255
     570:	80 e7       	ldi	r24, 0x70	; 112
     572:	92 e0       	ldi	r25, 0x02	; 2
     574:	21 50       	subi	r18, 0x01	; 1
     576:	80 40       	sbci	r24, 0x00	; 0
     578:	90 40       	sbci	r25, 0x00	; 0
     57a:	e1 f7       	brne	.-8      	; 0x574 <System_WakeUp+0x78>
     57c:	00 c0       	rjmp	.+0      	; 0x57e <System_WakeUp+0x82>
     57e:	00 00       	nop
     580:	83 ea       	ldi	r24, 0xA3	; 163
     582:	90 e0       	ldi	r25, 0x00	; 0
     584:	0e 94 10 07 	call	0xe20	; 0xe20 <LCD_vDispStr>
     588:	2f ef       	ldi	r18, 0xFF	; 255
     58a:	89 e6       	ldi	r24, 0x69	; 105
     58c:	98 e1       	ldi	r25, 0x18	; 24
     58e:	21 50       	subi	r18, 0x01	; 1
     590:	80 40       	sbci	r24, 0x00	; 0
     592:	90 40       	sbci	r25, 0x00	; 0
     594:	e1 f7       	brne	.-8      	; 0x58e <System_WakeUp+0x92>
     596:	00 c0       	rjmp	.+0      	; 0x598 <System_WakeUp+0x9c>
     598:	00 00       	nop
     59a:	0e 94 23 07 	call	0xe46	; 0xe46 <LCD_vClrDisp>
     59e:	f0 92 62 00 	sts	0x0062, r15	; 0x800062 <Home_State>
     5a2:	e0 92 65 00 	sts	0x0065, r14	; 0x800065 <trials>
     5a6:	77 c0       	rjmp	.+238    	; 0x696 <System_WakeUp+0x19a>
     5a8:	4c ec       	ldi	r20, 0xCC	; 204
     5aa:	50 e0       	ldi	r21, 0x00	; 0
     5ac:	60 e0       	ldi	r22, 0x00	; 0
     5ae:	70 e0       	ldi	r23, 0x00	; 0
     5b0:	80 e4       	ldi	r24, 0x40	; 64
     5b2:	9f e1       	ldi	r25, 0x1F	; 31
     5b4:	0e 94 70 0a 	call	0x14e0	; 0x14e0 <TIM0_vDelayMilli>
     5b8:	41 e0       	ldi	r20, 0x01	; 1
     5ba:	60 e0       	ldi	r22, 0x00	; 0
     5bc:	82 e0       	ldi	r24, 0x02	; 2
     5be:	0e 94 cd 08 	call	0x119a	; 0x119a <DIO_vSetPinVal>
     5c2:	2f e7       	ldi	r18, 0x7F	; 127
     5c4:	88 e3       	ldi	r24, 0x38	; 56
     5c6:	91 e0       	ldi	r25, 0x01	; 1
     5c8:	21 50       	subi	r18, 0x01	; 1
     5ca:	80 40       	sbci	r24, 0x00	; 0
     5cc:	90 40       	sbci	r25, 0x00	; 0
     5ce:	e1 f7       	brne	.-8      	; 0x5c8 <System_WakeUp+0xcc>
     5d0:	00 c0       	rjmp	.+0      	; 0x5d2 <System_WakeUp+0xd6>
     5d2:	00 00       	nop
     5d4:	40 e0       	ldi	r20, 0x00	; 0
     5d6:	60 e0       	ldi	r22, 0x00	; 0
     5d8:	82 e0       	ldi	r24, 0x02	; 2
     5da:	0e 94 cd 08 	call	0x119a	; 0x119a <DIO_vSetPinVal>
     5de:	2f e7       	ldi	r18, 0x7F	; 127
     5e0:	88 e3       	ldi	r24, 0x38	; 56
     5e2:	91 e0       	ldi	r25, 0x01	; 1
     5e4:	21 50       	subi	r18, 0x01	; 1
     5e6:	80 40       	sbci	r24, 0x00	; 0
     5e8:	90 40       	sbci	r25, 0x00	; 0
     5ea:	e1 f7       	brne	.-8      	; 0x5e4 <System_WakeUp+0xe8>
     5ec:	00 c0       	rjmp	.+0      	; 0x5ee <System_WakeUp+0xf2>
     5ee:	00 00       	nop
     5f0:	41 e0       	ldi	r20, 0x01	; 1
     5f2:	60 e0       	ldi	r22, 0x00	; 0
     5f4:	82 e0       	ldi	r24, 0x02	; 2
     5f6:	0e 94 cd 08 	call	0x119a	; 0x119a <DIO_vSetPinVal>
     5fa:	2f e7       	ldi	r18, 0x7F	; 127
     5fc:	88 e3       	ldi	r24, 0x38	; 56
     5fe:	91 e0       	ldi	r25, 0x01	; 1
     600:	21 50       	subi	r18, 0x01	; 1
     602:	80 40       	sbci	r24, 0x00	; 0
     604:	90 40       	sbci	r25, 0x00	; 0
     606:	e1 f7       	brne	.-8      	; 0x600 <System_WakeUp+0x104>
     608:	00 c0       	rjmp	.+0      	; 0x60a <System_WakeUp+0x10e>
     60a:	00 00       	nop
     60c:	40 e0       	ldi	r20, 0x00	; 0
     60e:	60 e0       	ldi	r22, 0x00	; 0
     610:	82 e0       	ldi	r24, 0x02	; 2
     612:	0e 94 cd 08 	call	0x119a	; 0x119a <DIO_vSetPinVal>
     616:	0e 94 23 07 	call	0xe46	; 0xe46 <LCD_vClrDisp>
     61a:	2f ef       	ldi	r18, 0xFF	; 255
     61c:	80 e7       	ldi	r24, 0x70	; 112
     61e:	92 e0       	ldi	r25, 0x02	; 2
     620:	21 50       	subi	r18, 0x01	; 1
     622:	80 40       	sbci	r24, 0x00	; 0
     624:	90 40       	sbci	r25, 0x00	; 0
     626:	e1 f7       	brne	.-8      	; 0x620 <System_WakeUp+0x124>
     628:	00 c0       	rjmp	.+0      	; 0x62a <System_WakeUp+0x12e>
     62a:	00 00       	nop
     62c:	8f ea       	ldi	r24, 0xAF	; 175
     62e:	90 e0       	ldi	r25, 0x00	; 0
     630:	0e 94 10 07 	call	0xe20	; 0xe20 <LCD_vDispStr>
     634:	2f ef       	ldi	r18, 0xFF	; 255
     636:	84 e3       	ldi	r24, 0x34	; 52
     638:	9c e0       	ldi	r25, 0x0C	; 12
     63a:	21 50       	subi	r18, 0x01	; 1
     63c:	80 40       	sbci	r24, 0x00	; 0
     63e:	90 40       	sbci	r25, 0x00	; 0
     640:	e1 f7       	brne	.-8      	; 0x63a <System_WakeUp+0x13e>
     642:	00 c0       	rjmp	.+0      	; 0x644 <System_WakeUp+0x148>
     644:	00 00       	nop
     646:	80 91 65 00 	lds	r24, 0x0065	; 0x800065 <trials>
     64a:	81 30       	cpi	r24, 0x01	; 1
     64c:	11 f5       	brne	.+68     	; 0x692 <System_WakeUp+0x196>
     64e:	0e 94 23 07 	call	0xe46	; 0xe46 <LCD_vClrDisp>
     652:	2f ef       	ldi	r18, 0xFF	; 255
     654:	80 e7       	ldi	r24, 0x70	; 112
     656:	92 e0       	ldi	r25, 0x02	; 2
     658:	21 50       	subi	r18, 0x01	; 1
     65a:	80 40       	sbci	r24, 0x00	; 0
     65c:	90 40       	sbci	r25, 0x00	; 0
     65e:	e1 f7       	brne	.-8      	; 0x658 <System_WakeUp+0x15c>
     660:	00 c0       	rjmp	.+0      	; 0x662 <System_WakeUp+0x166>
     662:	00 00       	nop
     664:	41 e0       	ldi	r20, 0x01	; 1
     666:	60 e0       	ldi	r22, 0x00	; 0
     668:	82 e0       	ldi	r24, 0x02	; 2
     66a:	0e 94 cd 08 	call	0x119a	; 0x119a <DIO_vSetPinVal>
     66e:	80 ec       	ldi	r24, 0xC0	; 192
     670:	90 e0       	ldi	r25, 0x00	; 0
     672:	0e 94 10 07 	call	0xe20	; 0xe20 <LCD_vDispStr>
     676:	2f ef       	ldi	r18, 0xFF	; 255
     678:	83 ed       	ldi	r24, 0xD3	; 211
     67a:	90 e3       	ldi	r25, 0x30	; 48
     67c:	21 50       	subi	r18, 0x01	; 1
     67e:	80 40       	sbci	r24, 0x00	; 0
     680:	90 40       	sbci	r25, 0x00	; 0
     682:	e1 f7       	brne	.-8      	; 0x67c <System_WakeUp+0x180>
     684:	00 c0       	rjmp	.+0      	; 0x686 <System_WakeUp+0x18a>
     686:	00 00       	nop
     688:	0e 94 23 07 	call	0xe46	; 0xe46 <LCD_vClrDisp>
     68c:	00 93 62 00 	sts	0x0062, r16	; 0x800062 <Home_State>
     690:	02 c0       	rjmp	.+4      	; 0x696 <System_WakeUp+0x19a>
     692:	0e 94 1a 01 	call	0x234	; 0x234 <Animation1_LcdPassword>
     696:	10 92 e3 00 	sts	0x00E3, r1	; 0x8000e3 <password_i>
     69a:	e4 ee       	ldi	r30, 0xE4	; 228
     69c:	f0 e0       	ldi	r31, 0x00	; 0
     69e:	11 92       	st	Z+, r1
     6a0:	20 e0       	ldi	r18, 0x00	; 0
     6a2:	ec 3e       	cpi	r30, 0xEC	; 236
     6a4:	f2 07       	cpc	r31, r18
     6a6:	d9 f7       	brne	.-10     	; 0x69e <System_WakeUp+0x1a2>
     6a8:	38 cf       	rjmp	.-400    	; 0x51a <System_WakeUp+0x1e>
     6aa:	8f 3f       	cpi	r24, 0xFF	; 255
     6ac:	09 f4       	brne	.+2      	; 0x6b0 <System_WakeUp+0x1b4>
     6ae:	35 cf       	rjmp	.-406    	; 0x51a <System_WakeUp+0x1e>
     6b0:	4c ec       	ldi	r20, 0xCC	; 204
     6b2:	50 e0       	ldi	r21, 0x00	; 0
     6b4:	60 e0       	ldi	r22, 0x00	; 0
     6b6:	70 e0       	ldi	r23, 0x00	; 0
     6b8:	80 e4       	ldi	r24, 0x40	; 64
     6ba:	9f e1       	ldi	r25, 0x1F	; 31
     6bc:	0e 94 70 0a 	call	0x14e0	; 0x14e0 <TIM0_vDelayMilli>
     6c0:	41 e0       	ldi	r20, 0x01	; 1
     6c2:	60 e0       	ldi	r22, 0x00	; 0
     6c4:	82 e0       	ldi	r24, 0x02	; 2
     6c6:	0e 94 cd 08 	call	0x119a	; 0x119a <DIO_vSetPinVal>
     6ca:	8f e4       	ldi	r24, 0x4F	; 79
     6cc:	93 ec       	ldi	r25, 0xC3	; 195
     6ce:	01 97       	sbiw	r24, 0x01	; 1
     6d0:	f1 f7       	brne	.-4      	; 0x6ce <System_WakeUp+0x1d2>
     6d2:	00 c0       	rjmp	.+0      	; 0x6d4 <System_WakeUp+0x1d8>
     6d4:	00 00       	nop
     6d6:	40 e0       	ldi	r20, 0x00	; 0
     6d8:	60 e0       	ldi	r22, 0x00	; 0
     6da:	82 e0       	ldi	r24, 0x02	; 2
     6dc:	0e 94 cd 08 	call	0x119a	; 0x119a <DIO_vSetPinVal>
     6e0:	80 91 e3 00 	lds	r24, 0x00E3	; 0x8000e3 <password_i>
     6e4:	e8 2f       	mov	r30, r24
     6e6:	f0 e0       	ldi	r31, 0x00	; 0
     6e8:	ec 51       	subi	r30, 0x1C	; 28
     6ea:	ff 4f       	sbci	r31, 0xFF	; 255
     6ec:	10 83       	st	Z, r17
     6ee:	8f 5f       	subi	r24, 0xFF	; 255
     6f0:	80 93 e3 00 	sts	0x00E3, r24	; 0x8000e3 <password_i>
     6f4:	8a e2       	ldi	r24, 0x2A	; 42
     6f6:	0e 94 0e 07 	call	0xe1c	; 0xe1c <LCD_vDispChar>
     6fa:	0f cf       	rjmp	.-482    	; 0x51a <System_WakeUp+0x1e>
     6fc:	85 36       	cpi	r24, 0x65	; 101
     6fe:	09 f0       	breq	.+2      	; 0x702 <System_WakeUp+0x206>
     700:	0c cf       	rjmp	.-488    	; 0x51a <System_WakeUp+0x1e>
     702:	ce 01       	movw	r24, r28
     704:	01 96       	adiw	r24, 0x01	; 1
     706:	0e 94 e3 07 	call	0xfc6	; 0xfc6 <ADC_StartChain>
     70a:	9f ef       	ldi	r25, 0xFF	; 255
     70c:	20 e7       	ldi	r18, 0x70	; 112
     70e:	82 e0       	ldi	r24, 0x02	; 2
     710:	91 50       	subi	r25, 0x01	; 1
     712:	20 40       	sbci	r18, 0x00	; 0
     714:	80 40       	sbci	r24, 0x00	; 0
     716:	e1 f7       	brne	.-8      	; 0x710 <System_WakeUp+0x214>
     718:	00 c0       	rjmp	.+0      	; 0x71a <System_WakeUp+0x21e>
     71a:	00 00       	nop
     71c:	0e 94 4b 02 	call	0x496	; 0x496 <LedIntensity_AutoControl>
     720:	fc ce       	rjmp	.-520    	; 0x51a <System_WakeUp+0x1e>

00000722 <FanSpeed_AutoControl>:
     722:	80 91 df 00 	lds	r24, 0x00DF	; 0x8000df <channelsValues>
     726:	90 91 e0 00 	lds	r25, 0x00E0	; 0x8000e0 <channelsValues+0x1>
     72a:	8a 30       	cpi	r24, 0x0A	; 10
     72c:	91 05       	cpc	r25, r1
     72e:	18 f4       	brcc	.+6      	; 0x736 <FanSpeed_AutoControl+0x14>
     730:	8a e0       	ldi	r24, 0x0A	; 10
     732:	90 e0       	ldi	r25, 0x00	; 0
     734:	23 c0       	rjmp	.+70     	; 0x77c <FanSpeed_AutoControl+0x5a>
     736:	8f 30       	cpi	r24, 0x0F	; 15
     738:	91 05       	cpc	r25, r1
     73a:	18 f4       	brcc	.+6      	; 0x742 <FanSpeed_AutoControl+0x20>
     73c:	84 e1       	ldi	r24, 0x14	; 20
     73e:	90 e0       	ldi	r25, 0x00	; 0
     740:	1d c0       	rjmp	.+58     	; 0x77c <FanSpeed_AutoControl+0x5a>
     742:	84 31       	cpi	r24, 0x14	; 20
     744:	91 05       	cpc	r25, r1
     746:	18 f4       	brcc	.+6      	; 0x74e <FanSpeed_AutoControl+0x2c>
     748:	8e e1       	ldi	r24, 0x1E	; 30
     74a:	90 e0       	ldi	r25, 0x00	; 0
     74c:	17 c0       	rjmp	.+46     	; 0x77c <FanSpeed_AutoControl+0x5a>
     74e:	89 31       	cpi	r24, 0x19	; 25
     750:	91 05       	cpc	r25, r1
     752:	18 f4       	brcc	.+6      	; 0x75a <FanSpeed_AutoControl+0x38>
     754:	88 e2       	ldi	r24, 0x28	; 40
     756:	90 e0       	ldi	r25, 0x00	; 0
     758:	11 c0       	rjmp	.+34     	; 0x77c <FanSpeed_AutoControl+0x5a>
     75a:	8e 31       	cpi	r24, 0x1E	; 30
     75c:	91 05       	cpc	r25, r1
     75e:	18 f4       	brcc	.+6      	; 0x766 <FanSpeed_AutoControl+0x44>
     760:	8c e3       	ldi	r24, 0x3C	; 60
     762:	90 e0       	ldi	r25, 0x00	; 0
     764:	0b c0       	rjmp	.+22     	; 0x77c <FanSpeed_AutoControl+0x5a>
     766:	83 32       	cpi	r24, 0x23	; 35
     768:	91 05       	cpc	r25, r1
     76a:	18 f4       	brcc	.+6      	; 0x772 <FanSpeed_AutoControl+0x50>
     76c:	80 e5       	ldi	r24, 0x50	; 80
     76e:	90 e0       	ldi	r25, 0x00	; 0
     770:	05 c0       	rjmp	.+10     	; 0x77c <FanSpeed_AutoControl+0x5a>
     772:	84 36       	cpi	r24, 0x64	; 100
     774:	91 05       	cpc	r25, r1
     776:	20 f4       	brcc	.+8      	; 0x780 <FanSpeed_AutoControl+0x5e>
     778:	84 e6       	ldi	r24, 0x64	; 100
     77a:	90 e0       	ldi	r25, 0x00	; 0
     77c:	0c 94 a1 04 	jmp	0x942	; 0x942 <DCM_vSetPWM>
     780:	08 95       	ret

00000782 <System_CommandsHandler>:
     782:	cf 92       	push	r12
     784:	df 92       	push	r13
     786:	ef 92       	push	r14
     788:	ff 92       	push	r15
     78a:	0f 93       	push	r16
     78c:	1f 93       	push	r17
     78e:	cf 93       	push	r28
     790:	80 91 2e 01 	lds	r24, 0x012E	; 0x80012e <G_u8Buffer+0x1>
     794:	86 36       	cpi	r24, 0x66	; 102
     796:	09 f4       	brne	.+2      	; 0x79a <System_CommandsHandler+0x18>
     798:	41 c0       	rjmp	.+130    	; 0x81c <__DATA_REGION_LENGTH__+0x1c>
     79a:	18 f4       	brcc	.+6      	; 0x7a2 <System_CommandsHandler+0x20>
     79c:	83 36       	cpi	r24, 0x63	; 99
     79e:	81 f0       	breq	.+32     	; 0x7c0 <System_CommandsHandler+0x3e>
     7a0:	53 c0       	rjmp	.+166    	; 0x848 <__DATA_REGION_LENGTH__+0x48>
     7a2:	87 36       	cpi	r24, 0x67	; 103
     7a4:	19 f0       	breq	.+6      	; 0x7ac <System_CommandsHandler+0x2a>
     7a6:	8c 36       	cpi	r24, 0x6C	; 108
     7a8:	d9 f0       	breq	.+54     	; 0x7e0 <System_CommandsHandler+0x5e>
     7aa:	4e c0       	rjmp	.+156    	; 0x848 <__DATA_REGION_LENGTH__+0x48>
     7ac:	80 91 2d 01 	lds	r24, 0x012D	; 0x80012d <G_u8Buffer>
     7b0:	82 37       	cpi	r24, 0x72	; 114
     7b2:	11 f4       	brne	.+4      	; 0x7b8 <System_CommandsHandler+0x36>
     7b4:	81 e0       	ldi	r24, 0x01	; 1
     7b6:	01 c0       	rjmp	.+2      	; 0x7ba <System_CommandsHandler+0x38>
     7b8:	80 e0       	ldi	r24, 0x00	; 0
     7ba:	0e 94 a8 07 	call	0xf50	; 0xf50 <SERVO_vSetState>
     7be:	44 c0       	rjmp	.+136    	; 0x848 <__DATA_REGION_LENGTH__+0x48>
     7c0:	80 91 2d 01 	lds	r24, 0x012D	; 0x80012d <G_u8Buffer>
     7c4:	82 37       	cpi	r24, 0x72	; 114
     7c6:	11 f4       	brne	.+4      	; 0x7cc <System_CommandsHandler+0x4a>
     7c8:	41 e0       	ldi	r20, 0x01	; 1
     7ca:	01 c0       	rjmp	.+2      	; 0x7ce <System_CommandsHandler+0x4c>
     7cc:	40 e0       	ldi	r20, 0x00	; 0
     7ce:	67 e0       	ldi	r22, 0x07	; 7
     7d0:	83 e0       	ldi	r24, 0x03	; 3
     7d2:	0e 94 cd 08 	call	0x119a	; 0x119a <DIO_vSetPinVal>
     7d6:	80 91 2d 01 	lds	r24, 0x012D	; 0x80012d <G_u8Buffer>
     7da:	80 93 28 01 	sts	0x0128, r24	; 0x800128 <G_u8HomeSatus+0x2>
     7de:	34 c0       	rjmp	.+104    	; 0x848 <__DATA_REGION_LENGTH__+0x48>
     7e0:	80 91 2f 01 	lds	r24, 0x012F	; 0x80012f <G_u8Buffer+0x2>
     7e4:	85 36       	cpi	r24, 0x65	; 101
     7e6:	31 f4       	brne	.+12     	; 0x7f4 <System_CommandsHandler+0x72>
     7e8:	82 e3       	ldi	r24, 0x32	; 50
     7ea:	80 93 60 00 	sts	0x0060, r24	; 0x800060 <__DATA_REGION_ORIGIN__>
     7ee:	0e 94 4b 02 	call	0x496	; 0x496 <LedIntensity_AutoControl>
     7f2:	0f c0       	rjmp	.+30     	; 0x812 <__DATA_REGION_LENGTH__+0x12>
     7f4:	83 e3       	ldi	r24, 0x33	; 51
     7f6:	80 93 60 00 	sts	0x0060, r24	; 0x800060 <__DATA_REGION_ORIGIN__>
     7fa:	80 91 2d 01 	lds	r24, 0x012D	; 0x80012d <G_u8Buffer>
     7fe:	82 37       	cpi	r24, 0x72	; 114
     800:	19 f4       	brne	.+6      	; 0x808 <__DATA_REGION_LENGTH__+0x8>
     802:	41 e0       	ldi	r20, 0x01	; 1
     804:	6e e0       	ldi	r22, 0x0E	; 14
     806:	02 c0       	rjmp	.+4      	; 0x80c <__DATA_REGION_LENGTH__+0xc>
     808:	40 e0       	ldi	r20, 0x00	; 0
     80a:	61 ef       	ldi	r22, 0xF1	; 241
     80c:	82 e0       	ldi	r24, 0x02	; 2
     80e:	0e 94 1e 09 	call	0x123c	; 0x123c <DIO_vPortVal_Maked>
     812:	80 91 2d 01 	lds	r24, 0x012D	; 0x80012d <G_u8Buffer>
     816:	80 93 2c 01 	sts	0x012C, r24	; 0x80012c <G_u8HomeSatus+0x6>
     81a:	16 c0       	rjmp	.+44     	; 0x848 <__DATA_REGION_LENGTH__+0x48>
     81c:	80 91 2f 01 	lds	r24, 0x012F	; 0x80012f <G_u8Buffer+0x2>
     820:	85 36       	cpi	r24, 0x65	; 101
     822:	31 f4       	brne	.+12     	; 0x830 <__DATA_REGION_LENGTH__+0x30>
     824:	82 e3       	ldi	r24, 0x32	; 50
     826:	80 93 61 00 	sts	0x0061, r24	; 0x800061 <G_u8FanMode>
     82a:	0e 94 91 03 	call	0x722	; 0x722 <FanSpeed_AutoControl>
     82e:	0c c0       	rjmp	.+24     	; 0x848 <__DATA_REGION_LENGTH__+0x48>
     830:	83 e3       	ldi	r24, 0x33	; 51
     832:	80 93 61 00 	sts	0x0061, r24	; 0x800061 <G_u8FanMode>
     836:	80 91 2d 01 	lds	r24, 0x012D	; 0x80012d <G_u8Buffer>
     83a:	82 37       	cpi	r24, 0x72	; 114
     83c:	19 f4       	brne	.+6      	; 0x844 <__DATA_REGION_LENGTH__+0x44>
     83e:	0e 94 9d 04 	call	0x93a	; 0x93a <DCM_vTurnOn>
     842:	02 c0       	rjmp	.+4      	; 0x848 <__DATA_REGION_LENGTH__+0x48>
     844:	0e 94 9f 04 	call	0x93e	; 0x93e <DCM_vTurnOff>
     848:	80 91 2d 01 	lds	r24, 0x012D	; 0x80012d <G_u8Buffer>
     84c:	80 37       	cpi	r24, 0x70	; 112
     84e:	99 f5       	brne	.+102    	; 0x8b6 <__stack+0x57>
     850:	c1 e0       	ldi	r28, 0x01	; 1
     852:	0c 2f       	mov	r16, r28
     854:	10 e0       	ldi	r17, 0x00	; 0
     856:	f8 01       	movw	r30, r16
     858:	e3 5d       	subi	r30, 0xD3	; 211
     85a:	fe 4f       	sbci	r31, 0xFE	; 254
     85c:	80 81       	ld	r24, Z
     85e:	81 37       	cpi	r24, 0x71	; 113
     860:	31 f0       	breq	.+12     	; 0x86e <__stack+0xf>
     862:	f8 01       	movw	r30, r16
     864:	eb 59       	subi	r30, 0x9B	; 155
     866:	ff 4f       	sbci	r31, 0xFF	; 255
     868:	80 83       	st	Z, r24
     86a:	cf 5f       	subi	r28, 0xFF	; 255
     86c:	f2 cf       	rjmp	.-28     	; 0x852 <__DATA_REGION_LENGTH__+0x52>
     86e:	86 e6       	ldi	r24, 0x66	; 102
     870:	c8 2e       	mov	r12, r24
     872:	80 e0       	ldi	r24, 0x00	; 0
     874:	d8 2e       	mov	r13, r24
     876:	e1 2c       	mov	r14, r1
     878:	f1 2c       	mov	r15, r1
     87a:	ec 16       	cp	r14, r28
     87c:	58 f4       	brcc	.+22     	; 0x894 <__stack+0x35>
     87e:	f6 01       	movw	r30, r12
     880:	61 91       	ld	r22, Z+
     882:	6f 01       	movw	r12, r30
     884:	70 e0       	ldi	r23, 0x00	; 0
     886:	c7 01       	movw	r24, r14
     888:	0e 94 96 09 	call	0x132c	; 0x132c <EEPROM_vWrite>
     88c:	ff ef       	ldi	r31, 0xFF	; 255
     88e:	ef 1a       	sub	r14, r31
     890:	ff 0a       	sbc	r15, r31
     892:	f3 cf       	rjmp	.-26     	; 0x87a <__stack+0x1b>
     894:	61 e7       	ldi	r22, 0x71	; 113
     896:	70 e0       	ldi	r23, 0x00	; 0
     898:	c8 01       	movw	r24, r16
     89a:	0e 94 96 09 	call	0x132c	; 0x132c <EEPROM_vWrite>
     89e:	00 e0       	ldi	r16, 0x00	; 0
     8a0:	10 e0       	ldi	r17, 0x00	; 0
     8a2:	0c 17       	cp	r16, r28
     8a4:	40 f4       	brcc	.+16     	; 0x8b6 <__stack+0x57>
     8a6:	c8 01       	movw	r24, r16
     8a8:	0e 94 9d 09 	call	0x133a	; 0x133a <EEPROM_u8Read>
     8ac:	0e 94 b4 04 	call	0x968	; 0x968 <HC_vSendData>
     8b0:	0f 5f       	subi	r16, 0xFF	; 255
     8b2:	1f 4f       	sbci	r17, 0xFF	; 255
     8b4:	f6 cf       	rjmp	.-20     	; 0x8a2 <__stack+0x43>
     8b6:	cf 91       	pop	r28
     8b8:	1f 91       	pop	r17
     8ba:	0f 91       	pop	r16
     8bc:	ff 90       	pop	r15
     8be:	ef 90       	pop	r14
     8c0:	df 90       	pop	r13
     8c2:	cf 90       	pop	r12
     8c4:	08 95       	ret

000008c6 <System_UartHandler>:
     8c6:	cf 93       	push	r28
     8c8:	df 93       	push	r29
     8ca:	ec 01       	movw	r28, r24
     8cc:	cb 97       	sbiw	r24, 0x3b	; 59
     8ce:	79 f4       	brne	.+30     	; 0x8ee <System_UartHandler+0x28>
     8d0:	10 92 dd 00 	sts	0x00DD, r1	; 0x8000dd <L_u8Flag.2102>
     8d4:	10 92 dc 00 	sts	0x00DC, r1	; 0x8000dc <__data_end>
     8d8:	81 e0       	ldi	r24, 0x01	; 1
     8da:	80 93 de 00 	sts	0x00DE, r24	; 0x8000de <G_u8IsBufferRdy>
     8de:	0e 94 c1 03 	call	0x782	; 0x782 <System_CommandsHandler>
     8e2:	0e 94 85 01 	call	0x30a	; 0x30a <System_SendFrame>
     8e6:	67 e0       	ldi	r22, 0x07	; 7
     8e8:	81 e0       	ldi	r24, 0x01	; 1
     8ea:	0e 94 66 09 	call	0x12cc	; 0x12cc <DIO_vTogPin>
     8ee:	80 91 dd 00 	lds	r24, 0x00DD	; 0x8000dd <L_u8Flag.2102>
     8f2:	81 30       	cpi	r24, 0x01	; 1
     8f4:	61 f4       	brne	.+24     	; 0x90e <System_UartHandler+0x48>
     8f6:	c0 32       	cpi	r28, 0x20	; 32
     8f8:	d1 05       	cpc	r29, r1
     8fa:	81 f0       	breq	.+32     	; 0x91c <System_UartHandler+0x56>
     8fc:	e0 91 dc 00 	lds	r30, 0x00DC	; 0x8000dc <__data_end>
     900:	8e 0f       	add	r24, r30
     902:	80 93 dc 00 	sts	0x00DC, r24	; 0x8000dc <__data_end>
     906:	f0 e0       	ldi	r31, 0x00	; 0
     908:	e3 5d       	subi	r30, 0xD3	; 211
     90a:	fe 4f       	sbci	r31, 0xFE	; 254
     90c:	c0 83       	st	Z, r28
     90e:	a3 97       	sbiw	r28, 0x23	; 35
     910:	29 f4       	brne	.+10     	; 0x91c <System_UartHandler+0x56>
     912:	81 e0       	ldi	r24, 0x01	; 1
     914:	80 93 dd 00 	sts	0x00DD, r24	; 0x8000dd <L_u8Flag.2102>
     918:	10 92 de 00 	sts	0x00DE, r1	; 0x8000de <G_u8IsBufferRdy>
     91c:	df 91       	pop	r29
     91e:	cf 91       	pop	r28
     920:	08 95       	ret

00000922 <main>:
     922:	0e 94 42 0a 	call	0x1484	; 0x1484 <Mcu_Init>
     926:	0e 94 d6 01 	call	0x3ac	; 0x3ac <System_Start>
     92a:	0e 94 7e 02 	call	0x4fc	; 0x4fc <System_WakeUp>
     92e:	fd cf       	rjmp	.-6      	; 0x92a <main+0x8>

00000930 <DCM_vInit>:
     930:	0e 94 12 0b 	call	0x1624	; 0x1624 <TIM1_vInit>
     934:	89 e1       	ldi	r24, 0x19	; 25
     936:	0c 94 3f 0b 	jmp	0x167e	; 0x167e <TIM1_vSetDutyCycleOC1B>

0000093a <DCM_vTurnOn>:
     93a:	0c 94 38 0b 	jmp	0x1670	; 0x1670 <TIM1_vTurnOn>

0000093e <DCM_vTurnOff>:
     93e:	0c 94 38 0b 	jmp	0x1670	; 0x1670 <TIM1_vTurnOn>

00000942 <DCM_vSetPWM>:
     942:	85 36       	cpi	r24, 0x65	; 101
     944:	14 f4       	brge	.+4      	; 0x94a <DCM_vSetPWM+0x8>
     946:	0c 94 3f 0b 	jmp	0x167e	; 0x167e <TIM1_vSetDutyCycleOC1B>
     94a:	08 95       	ret

0000094c <HC_vInit>:
     94c:	41 e0       	ldi	r20, 0x01	; 1
     94e:	66 e0       	ldi	r22, 0x06	; 6
     950:	83 e0       	ldi	r24, 0x03	; 3
     952:	0e 94 7c 08 	call	0x10f8	; 0x10f8 <DIO_vSetPinDir>
     956:	41 e0       	ldi	r20, 0x01	; 1
     958:	66 e0       	ldi	r22, 0x06	; 6
     95a:	83 e0       	ldi	r24, 0x03	; 3
     95c:	0e 94 cd 08 	call	0x119a	; 0x119a <DIO_vSetPinVal>
     960:	83 e3       	ldi	r24, 0x33	; 51
     962:	90 e0       	ldi	r25, 0x00	; 0
     964:	0c 94 80 0c 	jmp	0x1900	; 0x1900 <UART_vInit>

00000968 <HC_vSendData>:
     968:	90 e0       	ldi	r25, 0x00	; 0
     96a:	0c 94 98 0c 	jmp	0x1930	; 0x1930 <UART_vSendCharSync>

0000096e <HC_u8ReceiveDataAsync>:
     96e:	0c 94 b3 0c 	jmp	0x1966	; 0x1966 <UART_vSetCallBackRX>

00000972 <HC_vSendString>:
     972:	0c 94 9c 0c 	jmp	0x1938	; 0x1938 <UART_vSendStringSync>

00000976 <KeyPad_vInit>:
     976:	cf 93       	push	r28
     978:	c0 e0       	ldi	r28, 0x00	; 0
     97a:	41 e0       	ldi	r20, 0x01	; 1
     97c:	6c 2f       	mov	r22, r28
     97e:	81 e0       	ldi	r24, 0x01	; 1
     980:	0e 94 7c 08 	call	0x10f8	; 0x10f8 <DIO_vSetPinDir>
     984:	40 e0       	ldi	r20, 0x00	; 0
     986:	6c 2f       	mov	r22, r28
     988:	81 e0       	ldi	r24, 0x01	; 1
     98a:	0e 94 cd 08 	call	0x119a	; 0x119a <DIO_vSetPinVal>
     98e:	cf 5f       	subi	r28, 0xFF	; 255
     990:	c3 30       	cpi	r28, 0x03	; 3
     992:	99 f7       	brne	.-26     	; 0x97a <KeyPad_vInit+0x4>
     994:	40 e0       	ldi	r20, 0x00	; 0
     996:	6c 2f       	mov	r22, r28
     998:	81 e0       	ldi	r24, 0x01	; 1
     99a:	0e 94 7c 08 	call	0x10f8	; 0x10f8 <DIO_vSetPinDir>
     99e:	41 e0       	ldi	r20, 0x01	; 1
     9a0:	6c 2f       	mov	r22, r28
     9a2:	81 e0       	ldi	r24, 0x01	; 1
     9a4:	0e 94 cd 08 	call	0x119a	; 0x119a <DIO_vSetPinVal>
     9a8:	cf 5f       	subi	r28, 0xFF	; 255
     9aa:	c7 30       	cpi	r28, 0x07	; 7
     9ac:	99 f7       	brne	.-26     	; 0x994 <KeyPad_vInit+0x1e>
     9ae:	cf 91       	pop	r28
     9b0:	08 95       	ret

000009b2 <KeyPad_u8GetPressedKey>:
     9b2:	ff 92       	push	r15
     9b4:	0f 93       	push	r16
     9b6:	1f 93       	push	r17
     9b8:	cf 93       	push	r28
     9ba:	df 93       	push	r29
     9bc:	c0 e0       	ldi	r28, 0x00	; 0
     9be:	d0 e0       	ldi	r29, 0x00	; 0
     9c0:	0f ef       	ldi	r16, 0xFF	; 255
     9c2:	fc 2e       	mov	r15, r28
     9c4:	40 e0       	ldi	r20, 0x00	; 0
     9c6:	6c 2f       	mov	r22, r28
     9c8:	81 e0       	ldi	r24, 0x01	; 1
     9ca:	0e 94 cd 08 	call	0x119a	; 0x119a <DIO_vSetPinVal>
     9ce:	13 e0       	ldi	r17, 0x03	; 3
     9d0:	61 2f       	mov	r22, r17
     9d2:	81 e0       	ldi	r24, 0x01	; 1
     9d4:	0e 94 4e 09 	call	0x129c	; 0x129c <DIO_u8GetPinVal>
     9d8:	81 11       	cpse	r24, r1
     9da:	1c c0       	rjmp	.+56     	; 0xa14 <KeyPad_u8GetPressedKey+0x62>
     9dc:	61 2f       	mov	r22, r17
     9de:	81 e0       	ldi	r24, 0x01	; 1
     9e0:	0e 94 4e 09 	call	0x129c	; 0x129c <DIO_u8GetPinVal>
     9e4:	88 23       	and	r24, r24
     9e6:	d1 f3       	breq	.-12     	; 0x9dc <KeyPad_u8GetPressedKey+0x2a>
     9e8:	61 2f       	mov	r22, r17
     9ea:	70 e0       	ldi	r23, 0x00	; 0
     9ec:	63 50       	subi	r22, 0x03	; 3
     9ee:	71 09       	sbc	r23, r1
     9f0:	fb 01       	movw	r30, r22
     9f2:	ee 0f       	add	r30, r30
     9f4:	ff 1f       	adc	r31, r31
     9f6:	e6 0f       	add	r30, r22
     9f8:	f7 1f       	adc	r31, r23
     9fa:	e0 53       	subi	r30, 0x30	; 48
     9fc:	ff 4f       	sbci	r31, 0xFF	; 255
     9fe:	ec 0f       	add	r30, r28
     a00:	fd 1f       	adc	r31, r29
     a02:	00 81       	ld	r16, Z
     a04:	8f e3       	ldi	r24, 0x3F	; 63
     a06:	9c e9       	ldi	r25, 0x9C	; 156
     a08:	01 97       	sbiw	r24, 0x01	; 1
     a0a:	f1 f7       	brne	.-4      	; 0xa08 <KeyPad_u8GetPressedKey+0x56>
     a0c:	00 c0       	rjmp	.+0      	; 0xa0e <KeyPad_u8GetPressedKey+0x5c>
     a0e:	00 00       	nop
     a10:	11 e0       	ldi	r17, 0x01	; 1
     a12:	04 c0       	rjmp	.+8      	; 0xa1c <KeyPad_u8GetPressedKey+0x6a>
     a14:	1f 5f       	subi	r17, 0xFF	; 255
     a16:	17 30       	cpi	r17, 0x07	; 7
     a18:	d9 f6       	brne	.-74     	; 0x9d0 <KeyPad_u8GetPressedKey+0x1e>
     a1a:	10 e0       	ldi	r17, 0x00	; 0
     a1c:	41 e0       	ldi	r20, 0x01	; 1
     a1e:	6f 2d       	mov	r22, r15
     a20:	81 e0       	ldi	r24, 0x01	; 1
     a22:	0e 94 cd 08 	call	0x119a	; 0x119a <DIO_vSetPinVal>
     a26:	11 30       	cpi	r17, 0x01	; 1
     a28:	21 f0       	breq	.+8      	; 0xa32 <KeyPad_u8GetPressedKey+0x80>
     a2a:	21 96       	adiw	r28, 0x01	; 1
     a2c:	c3 30       	cpi	r28, 0x03	; 3
     a2e:	d1 05       	cpc	r29, r1
     a30:	41 f6       	brne	.-112    	; 0x9c2 <KeyPad_u8GetPressedKey+0x10>
     a32:	80 2f       	mov	r24, r16
     a34:	df 91       	pop	r29
     a36:	cf 91       	pop	r28
     a38:	1f 91       	pop	r17
     a3a:	0f 91       	pop	r16
     a3c:	ff 90       	pop	r15
     a3e:	08 95       	ret

00000a40 <u8IntToString>:
     a40:	2f 92       	push	r2
     a42:	3f 92       	push	r3
     a44:	4f 92       	push	r4
     a46:	5f 92       	push	r5
     a48:	6f 92       	push	r6
     a4a:	7f 92       	push	r7
     a4c:	8f 92       	push	r8
     a4e:	9f 92       	push	r9
     a50:	af 92       	push	r10
     a52:	bf 92       	push	r11
     a54:	cf 92       	push	r12
     a56:	df 92       	push	r13
     a58:	ef 92       	push	r14
     a5a:	ff 92       	push	r15
     a5c:	0f 93       	push	r16
     a5e:	1f 93       	push	r17
     a60:	cf 93       	push	r28
     a62:	df 93       	push	r29
     a64:	cd b7       	in	r28, 0x3d	; 61
     a66:	de b7       	in	r29, 0x3e	; 62
     a68:	61 97       	sbiw	r28, 0x11	; 17
     a6a:	0f b6       	in	r0, 0x3f	; 63
     a6c:	f8 94       	cli
     a6e:	de bf       	out	0x3e, r29	; 62
     a70:	0f be       	out	0x3f, r0	; 63
     a72:	cd bf       	out	0x3d, r28	; 61
     a74:	92 2e       	mov	r9, r18
     a76:	83 2e       	mov	r8, r19
     a78:	74 2e       	mov	r7, r20
     a7a:	65 2e       	mov	r6, r21
     a7c:	56 2e       	mov	r5, r22
     a7e:	47 2e       	mov	r4, r23
     a80:	38 2e       	mov	r3, r24
     a82:	29 2e       	mov	r2, r25
     a84:	9e 01       	movw	r18, r28
     a86:	2f 5f       	subi	r18, 0xFF	; 255
     a88:	3f 4f       	sbci	r19, 0xFF	; 255
     a8a:	3c 87       	std	Y+12, r19	; 0x0c
     a8c:	2b 87       	std	Y+11, r18	; 0x0b
     a8e:	8a e0       	ldi	r24, 0x0A	; 10
     a90:	f9 01       	movw	r30, r18
     a92:	11 92       	st	Z+, r1
     a94:	8a 95       	dec	r24
     a96:	e9 f7       	brne	.-6      	; 0xa92 <u8IntToString+0x52>
     a98:	29 2d       	mov	r18, r9
     a9a:	38 2d       	mov	r19, r8
     a9c:	83 2d       	mov	r24, r3
     a9e:	a0 e0       	ldi	r26, 0x00	; 0
     aa0:	0e 94 3c 10 	call	0x2078	; 0x2078 <__cmpdi2_s8>
     aa4:	84 f4       	brge	.+32     	; 0xac6 <u8IntToString+0x86>
     aa6:	8d e2       	ldi	r24, 0x2D	; 45
     aa8:	89 83       	std	Y+1, r24	; 0x01
     aaa:	83 2d       	mov	r24, r3
     aac:	0e 94 f5 0f 	call	0x1fea	; 0x1fea <__negdi2>
     ab0:	92 2e       	mov	r9, r18
     ab2:	83 2e       	mov	r8, r19
     ab4:	74 2e       	mov	r7, r20
     ab6:	65 2e       	mov	r6, r21
     ab8:	56 2e       	mov	r5, r22
     aba:	47 2e       	mov	r4, r23
     abc:	38 2e       	mov	r3, r24
     abe:	29 2e       	mov	r2, r25
     ac0:	f1 e0       	ldi	r31, 0x01	; 1
     ac2:	fd 87       	std	Y+13, r31	; 0x0d
     ac4:	01 c0       	rjmp	.+2      	; 0xac8 <u8IntToString+0x88>
     ac6:	1d 86       	std	Y+13, r1	; 0x0d
     ac8:	3d 85       	ldd	r19, Y+13	; 0x0d
     aca:	23 2f       	mov	r18, r19
     acc:	30 e0       	ldi	r19, 0x00	; 0
     ace:	3f 87       	std	Y+15, r19	; 0x0f
     ad0:	2e 87       	std	Y+14, r18	; 0x0e
     ad2:	61 e0       	ldi	r22, 0x01	; 1
     ad4:	70 e0       	ldi	r23, 0x00	; 0
     ad6:	6c 0f       	add	r22, r28
     ad8:	7d 1f       	adc	r23, r29
     ada:	62 0f       	add	r22, r18
     adc:	73 1f       	adc	r23, r19
     ade:	79 8b       	std	Y+17, r23	; 0x11
     ae0:	68 8b       	std	Y+16, r22	; 0x10
     ae2:	8a e0       	ldi	r24, 0x0A	; 10
     ae4:	a8 2e       	mov	r10, r24
     ae6:	b1 2c       	mov	r11, r1
     ae8:	c1 2c       	mov	r12, r1
     aea:	d1 2c       	mov	r13, r1
     aec:	e1 2c       	mov	r14, r1
     aee:	f1 2c       	mov	r15, r1
     af0:	00 e0       	ldi	r16, 0x00	; 0
     af2:	10 e0       	ldi	r17, 0x00	; 0
     af4:	29 2d       	mov	r18, r9
     af6:	38 2d       	mov	r19, r8
     af8:	47 2d       	mov	r20, r7
     afa:	56 2d       	mov	r21, r6
     afc:	65 2d       	mov	r22, r5
     afe:	74 2d       	mov	r23, r4
     b00:	83 2d       	mov	r24, r3
     b02:	92 2d       	mov	r25, r2
     b04:	0e 94 65 0f 	call	0x1eca	; 0x1eca <__moddi3>
     b08:	20 5d       	subi	r18, 0xD0	; 208
     b0a:	e8 89       	ldd	r30, Y+16	; 0x10
     b0c:	f9 89       	ldd	r31, Y+17	; 0x11
     b0e:	20 83       	st	Z, r18
     b10:	29 2d       	mov	r18, r9
     b12:	38 2d       	mov	r19, r8
     b14:	47 2d       	mov	r20, r7
     b16:	56 2d       	mov	r21, r6
     b18:	65 2d       	mov	r22, r5
     b1a:	74 2d       	mov	r23, r4
     b1c:	83 2d       	mov	r24, r3
     b1e:	92 2d       	mov	r25, r2
     b20:	0e 94 67 0f 	call	0x1ece	; 0x1ece <__divdi3>
     b24:	92 2e       	mov	r9, r18
     b26:	83 2e       	mov	r8, r19
     b28:	74 2e       	mov	r7, r20
     b2a:	65 2e       	mov	r6, r21
     b2c:	56 2e       	mov	r5, r22
     b2e:	47 2e       	mov	r4, r23
     b30:	38 2e       	mov	r3, r24
     b32:	29 2e       	mov	r2, r25
     b34:	a0 e0       	ldi	r26, 0x00	; 0
     b36:	0e 94 3c 10 	call	0x2078	; 0x2078 <__cmpdi2_s8>
     b3a:	31 f4       	brne	.+12     	; 0xb48 <u8IntToString+0x108>
     b3c:	ee 85       	ldd	r30, Y+14	; 0x0e
     b3e:	ff 85       	ldd	r31, Y+15	; 0x0f
     b40:	ec 0f       	add	r30, r28
     b42:	fd 1f       	adc	r31, r29
     b44:	12 82       	std	Z+2, r1	; 0x02
     b46:	06 c0       	rjmp	.+12     	; 0xb54 <u8IntToString+0x114>
     b48:	fd 85       	ldd	r31, Y+13	; 0x0d
     b4a:	ff 5f       	subi	r31, 0xFF	; 255
     b4c:	fd 87       	std	Y+13, r31	; 0x0d
     b4e:	f9 30       	cpi	r31, 0x09	; 9
     b50:	09 f0       	breq	.+2      	; 0xb54 <u8IntToString+0x114>
     b52:	ba cf       	rjmp	.-140    	; 0xac8 <u8IntToString+0x88>
     b54:	89 81       	ldd	r24, Y+1	; 0x01
     b56:	8d 32       	cpi	r24, 0x2D	; 45
     b58:	21 f4       	brne	.+8      	; 0xb62 <u8IntToString+0x122>
     b5a:	80 93 ec 00 	sts	0x00EC, r24	; 0x8000ec <L_u8Chars.1899>
     b5e:	31 e0       	ldi	r19, 0x01	; 1
     b60:	01 c0       	rjmp	.+2      	; 0xb64 <u8IntToString+0x124>
     b62:	30 e0       	ldi	r19, 0x00	; 0
     b64:	23 2f       	mov	r18, r19
     b66:	4d 85       	ldd	r20, Y+13	; 0x0d
     b68:	84 2f       	mov	r24, r20
     b6a:	90 e0       	ldi	r25, 0x00	; 0
     b6c:	62 2f       	mov	r22, r18
     b6e:	63 1b       	sub	r22, r19
     b70:	42 2f       	mov	r20, r18
     b72:	02 2e       	mov	r0, r18
     b74:	00 0c       	add	r0, r0
     b76:	55 0b       	sbc	r21, r21
     b78:	84 17       	cp	r24, r20
     b7a:	95 07       	cpc	r25, r21
     b7c:	ac f0       	brlt	.+42     	; 0xba8 <u8IntToString+0x168>
     b7e:	da 01       	movw	r26, r20
     b80:	a4 51       	subi	r26, 0x14	; 20
     b82:	bf 4f       	sbci	r27, 0xFF	; 255
     b84:	fc 01       	movw	r30, r24
     b86:	e6 1b       	sub	r30, r22
     b88:	f1 09       	sbc	r31, r1
     b8a:	61 e0       	ldi	r22, 0x01	; 1
     b8c:	70 e0       	ldi	r23, 0x00	; 0
     b8e:	6c 0f       	add	r22, r28
     b90:	7d 1f       	adc	r23, r29
     b92:	e6 0f       	add	r30, r22
     b94:	f7 1f       	adc	r31, r23
     b96:	60 81       	ld	r22, Z
     b98:	6c 93       	st	X, r22
     b9a:	48 17       	cp	r20, r24
     b9c:	59 07       	cpc	r21, r25
     b9e:	11 f4       	brne	.+4      	; 0xba4 <u8IntToString+0x164>
     ba0:	11 96       	adiw	r26, 0x01	; 1
     ba2:	1c 92       	st	X, r1
     ba4:	2f 5f       	subi	r18, 0xFF	; 255
     ba6:	e2 cf       	rjmp	.-60     	; 0xb6c <u8IntToString+0x12c>
     ba8:	8c ee       	ldi	r24, 0xEC	; 236
     baa:	90 e0       	ldi	r25, 0x00	; 0
     bac:	61 96       	adiw	r28, 0x11	; 17
     bae:	0f b6       	in	r0, 0x3f	; 63
     bb0:	f8 94       	cli
     bb2:	de bf       	out	0x3e, r29	; 62
     bb4:	0f be       	out	0x3f, r0	; 63
     bb6:	cd bf       	out	0x3d, r28	; 61
     bb8:	df 91       	pop	r29
     bba:	cf 91       	pop	r28
     bbc:	1f 91       	pop	r17
     bbe:	0f 91       	pop	r16
     bc0:	ff 90       	pop	r15
     bc2:	ef 90       	pop	r14
     bc4:	df 90       	pop	r13
     bc6:	cf 90       	pop	r12
     bc8:	bf 90       	pop	r11
     bca:	af 90       	pop	r10
     bcc:	9f 90       	pop	r9
     bce:	8f 90       	pop	r8
     bd0:	7f 90       	pop	r7
     bd2:	6f 90       	pop	r6
     bd4:	5f 90       	pop	r5
     bd6:	4f 90       	pop	r4
     bd8:	3f 90       	pop	r3
     bda:	2f 90       	pop	r2
     bdc:	08 95       	ret

00000bde <LCD_vSendCmd>:
     bde:	cf 93       	push	r28
     be0:	c8 2f       	mov	r28, r24
     be2:	40 e0       	ldi	r20, 0x00	; 0
     be4:	67 e0       	ldi	r22, 0x07	; 7
     be6:	80 e0       	ldi	r24, 0x00	; 0
     be8:	0e 94 cd 08 	call	0x119a	; 0x119a <DIO_vSetPinVal>
     bec:	40 e0       	ldi	r20, 0x00	; 0
     bee:	64 e0       	ldi	r22, 0x04	; 4
     bf0:	80 e0       	ldi	r24, 0x00	; 0
     bf2:	0e 94 cd 08 	call	0x119a	; 0x119a <DIO_vSetPinVal>
     bf6:	41 e0       	ldi	r20, 0x01	; 1
     bf8:	66 e0       	ldi	r22, 0x06	; 6
     bfa:	80 e0       	ldi	r24, 0x00	; 0
     bfc:	0e 94 cd 08 	call	0x119a	; 0x119a <DIO_vSetPinVal>
     c00:	c4 fb       	bst	r28, 4
     c02:	44 27       	eor	r20, r20
     c04:	40 f9       	bld	r20, 0
     c06:	64 e0       	ldi	r22, 0x04	; 4
     c08:	82 e0       	ldi	r24, 0x02	; 2
     c0a:	0e 94 cd 08 	call	0x119a	; 0x119a <DIO_vSetPinVal>
     c0e:	c5 fb       	bst	r28, 5
     c10:	44 27       	eor	r20, r20
     c12:	40 f9       	bld	r20, 0
     c14:	65 e0       	ldi	r22, 0x05	; 5
     c16:	82 e0       	ldi	r24, 0x02	; 2
     c18:	0e 94 cd 08 	call	0x119a	; 0x119a <DIO_vSetPinVal>
     c1c:	c6 fb       	bst	r28, 6
     c1e:	44 27       	eor	r20, r20
     c20:	40 f9       	bld	r20, 0
     c22:	66 e0       	ldi	r22, 0x06	; 6
     c24:	82 e0       	ldi	r24, 0x02	; 2
     c26:	0e 94 cd 08 	call	0x119a	; 0x119a <DIO_vSetPinVal>
     c2a:	4c 2f       	mov	r20, r28
     c2c:	44 1f       	adc	r20, r20
     c2e:	44 27       	eor	r20, r20
     c30:	44 1f       	adc	r20, r20
     c32:	67 e0       	ldi	r22, 0x07	; 7
     c34:	82 e0       	ldi	r24, 0x02	; 2
     c36:	0e 94 cd 08 	call	0x119a	; 0x119a <DIO_vSetPinVal>
     c3a:	40 e0       	ldi	r20, 0x00	; 0
     c3c:	66 e0       	ldi	r22, 0x06	; 6
     c3e:	80 e0       	ldi	r24, 0x00	; 0
     c40:	0e 94 cd 08 	call	0x119a	; 0x119a <DIO_vSetPinVal>
     c44:	41 e0       	ldi	r20, 0x01	; 1
     c46:	66 e0       	ldi	r22, 0x06	; 6
     c48:	80 e0       	ldi	r24, 0x00	; 0
     c4a:	0e 94 cd 08 	call	0x119a	; 0x119a <DIO_vSetPinVal>
     c4e:	4c 2f       	mov	r20, r28
     c50:	41 70       	andi	r20, 0x01	; 1
     c52:	64 e0       	ldi	r22, 0x04	; 4
     c54:	82 e0       	ldi	r24, 0x02	; 2
     c56:	0e 94 cd 08 	call	0x119a	; 0x119a <DIO_vSetPinVal>
     c5a:	c1 fb       	bst	r28, 1
     c5c:	44 27       	eor	r20, r20
     c5e:	40 f9       	bld	r20, 0
     c60:	65 e0       	ldi	r22, 0x05	; 5
     c62:	82 e0       	ldi	r24, 0x02	; 2
     c64:	0e 94 cd 08 	call	0x119a	; 0x119a <DIO_vSetPinVal>
     c68:	c2 fb       	bst	r28, 2
     c6a:	44 27       	eor	r20, r20
     c6c:	40 f9       	bld	r20, 0
     c6e:	66 e0       	ldi	r22, 0x06	; 6
     c70:	82 e0       	ldi	r24, 0x02	; 2
     c72:	0e 94 cd 08 	call	0x119a	; 0x119a <DIO_vSetPinVal>
     c76:	c3 fb       	bst	r28, 3
     c78:	44 27       	eor	r20, r20
     c7a:	40 f9       	bld	r20, 0
     c7c:	67 e0       	ldi	r22, 0x07	; 7
     c7e:	82 e0       	ldi	r24, 0x02	; 2
     c80:	0e 94 cd 08 	call	0x119a	; 0x119a <DIO_vSetPinVal>
     c84:	40 e0       	ldi	r20, 0x00	; 0
     c86:	66 e0       	ldi	r22, 0x06	; 6
     c88:	80 e0       	ldi	r24, 0x00	; 0
     c8a:	cf 91       	pop	r28
     c8c:	0c 94 cd 08 	jmp	0x119a	; 0x119a <DIO_vSetPinVal>

00000c90 <LCD_vSendData>:
     c90:	cf 93       	push	r28
     c92:	c8 2f       	mov	r28, r24
     c94:	41 e0       	ldi	r20, 0x01	; 1
     c96:	66 e0       	ldi	r22, 0x06	; 6
     c98:	80 e0       	ldi	r24, 0x00	; 0
     c9a:	0e 94 cd 08 	call	0x119a	; 0x119a <DIO_vSetPinVal>
     c9e:	41 e0       	ldi	r20, 0x01	; 1
     ca0:	67 e0       	ldi	r22, 0x07	; 7
     ca2:	80 e0       	ldi	r24, 0x00	; 0
     ca4:	0e 94 cd 08 	call	0x119a	; 0x119a <DIO_vSetPinVal>
     ca8:	40 e0       	ldi	r20, 0x00	; 0
     caa:	64 e0       	ldi	r22, 0x04	; 4
     cac:	80 e0       	ldi	r24, 0x00	; 0
     cae:	0e 94 cd 08 	call	0x119a	; 0x119a <DIO_vSetPinVal>
     cb2:	c4 fb       	bst	r28, 4
     cb4:	44 27       	eor	r20, r20
     cb6:	40 f9       	bld	r20, 0
     cb8:	64 e0       	ldi	r22, 0x04	; 4
     cba:	82 e0       	ldi	r24, 0x02	; 2
     cbc:	0e 94 cd 08 	call	0x119a	; 0x119a <DIO_vSetPinVal>
     cc0:	c5 fb       	bst	r28, 5
     cc2:	44 27       	eor	r20, r20
     cc4:	40 f9       	bld	r20, 0
     cc6:	65 e0       	ldi	r22, 0x05	; 5
     cc8:	82 e0       	ldi	r24, 0x02	; 2
     cca:	0e 94 cd 08 	call	0x119a	; 0x119a <DIO_vSetPinVal>
     cce:	c6 fb       	bst	r28, 6
     cd0:	44 27       	eor	r20, r20
     cd2:	40 f9       	bld	r20, 0
     cd4:	66 e0       	ldi	r22, 0x06	; 6
     cd6:	82 e0       	ldi	r24, 0x02	; 2
     cd8:	0e 94 cd 08 	call	0x119a	; 0x119a <DIO_vSetPinVal>
     cdc:	4c 2f       	mov	r20, r28
     cde:	44 1f       	adc	r20, r20
     ce0:	44 27       	eor	r20, r20
     ce2:	44 1f       	adc	r20, r20
     ce4:	67 e0       	ldi	r22, 0x07	; 7
     ce6:	82 e0       	ldi	r24, 0x02	; 2
     ce8:	0e 94 cd 08 	call	0x119a	; 0x119a <DIO_vSetPinVal>
     cec:	40 e0       	ldi	r20, 0x00	; 0
     cee:	66 e0       	ldi	r22, 0x06	; 6
     cf0:	80 e0       	ldi	r24, 0x00	; 0
     cf2:	0e 94 cd 08 	call	0x119a	; 0x119a <DIO_vSetPinVal>
     cf6:	41 e0       	ldi	r20, 0x01	; 1
     cf8:	66 e0       	ldi	r22, 0x06	; 6
     cfa:	80 e0       	ldi	r24, 0x00	; 0
     cfc:	0e 94 cd 08 	call	0x119a	; 0x119a <DIO_vSetPinVal>
     d00:	4c 2f       	mov	r20, r28
     d02:	41 70       	andi	r20, 0x01	; 1
     d04:	64 e0       	ldi	r22, 0x04	; 4
     d06:	82 e0       	ldi	r24, 0x02	; 2
     d08:	0e 94 cd 08 	call	0x119a	; 0x119a <DIO_vSetPinVal>
     d0c:	c1 fb       	bst	r28, 1
     d0e:	44 27       	eor	r20, r20
     d10:	40 f9       	bld	r20, 0
     d12:	65 e0       	ldi	r22, 0x05	; 5
     d14:	82 e0       	ldi	r24, 0x02	; 2
     d16:	0e 94 cd 08 	call	0x119a	; 0x119a <DIO_vSetPinVal>
     d1a:	c2 fb       	bst	r28, 2
     d1c:	44 27       	eor	r20, r20
     d1e:	40 f9       	bld	r20, 0
     d20:	66 e0       	ldi	r22, 0x06	; 6
     d22:	82 e0       	ldi	r24, 0x02	; 2
     d24:	0e 94 cd 08 	call	0x119a	; 0x119a <DIO_vSetPinVal>
     d28:	c3 fb       	bst	r28, 3
     d2a:	44 27       	eor	r20, r20
     d2c:	40 f9       	bld	r20, 0
     d2e:	67 e0       	ldi	r22, 0x07	; 7
     d30:	82 e0       	ldi	r24, 0x02	; 2
     d32:	0e 94 cd 08 	call	0x119a	; 0x119a <DIO_vSetPinVal>
     d36:	40 e0       	ldi	r20, 0x00	; 0
     d38:	66 e0       	ldi	r22, 0x06	; 6
     d3a:	80 e0       	ldi	r24, 0x00	; 0
     d3c:	0e 94 cd 08 	call	0x119a	; 0x119a <DIO_vSetPinVal>
     d40:	83 e0       	ldi	r24, 0x03	; 3
     d42:	8a 95       	dec	r24
     d44:	f1 f7       	brne	.-4      	; 0xd42 <LCD_vSendData+0xb2>
     d46:	00 00       	nop
     d48:	cf 91       	pop	r28
     d4a:	08 95       	ret

00000d4c <LCD_vInit>:
     d4c:	8b e4       	ldi	r24, 0x4B	; 75
     d4e:	9d e1       	ldi	r25, 0x1D	; 29
     d50:	01 97       	sbiw	r24, 0x01	; 1
     d52:	f1 f7       	brne	.-4      	; 0xd50 <LCD_vInit+0x4>
     d54:	00 c0       	rjmp	.+0      	; 0xd56 <LCD_vInit+0xa>
     d56:	00 00       	nop
     d58:	41 e0       	ldi	r20, 0x01	; 1
     d5a:	66 e0       	ldi	r22, 0x06	; 6
     d5c:	80 e0       	ldi	r24, 0x00	; 0
     d5e:	0e 94 7c 08 	call	0x10f8	; 0x10f8 <DIO_vSetPinDir>
     d62:	41 e0       	ldi	r20, 0x01	; 1
     d64:	64 e0       	ldi	r22, 0x04	; 4
     d66:	80 e0       	ldi	r24, 0x00	; 0
     d68:	0e 94 7c 08 	call	0x10f8	; 0x10f8 <DIO_vSetPinDir>
     d6c:	41 e0       	ldi	r20, 0x01	; 1
     d6e:	67 e0       	ldi	r22, 0x07	; 7
     d70:	80 e0       	ldi	r24, 0x00	; 0
     d72:	0e 94 7c 08 	call	0x10f8	; 0x10f8 <DIO_vSetPinDir>
     d76:	41 e0       	ldi	r20, 0x01	; 1
     d78:	64 e0       	ldi	r22, 0x04	; 4
     d7a:	82 e0       	ldi	r24, 0x02	; 2
     d7c:	0e 94 7c 08 	call	0x10f8	; 0x10f8 <DIO_vSetPinDir>
     d80:	41 e0       	ldi	r20, 0x01	; 1
     d82:	65 e0       	ldi	r22, 0x05	; 5
     d84:	82 e0       	ldi	r24, 0x02	; 2
     d86:	0e 94 7c 08 	call	0x10f8	; 0x10f8 <DIO_vSetPinDir>
     d8a:	41 e0       	ldi	r20, 0x01	; 1
     d8c:	66 e0       	ldi	r22, 0x06	; 6
     d8e:	82 e0       	ldi	r24, 0x02	; 2
     d90:	0e 94 7c 08 	call	0x10f8	; 0x10f8 <DIO_vSetPinDir>
     d94:	41 e0       	ldi	r20, 0x01	; 1
     d96:	67 e0       	ldi	r22, 0x07	; 7
     d98:	82 e0       	ldi	r24, 0x02	; 2
     d9a:	0e 94 7c 08 	call	0x10f8	; 0x10f8 <DIO_vSetPinDir>
     d9e:	40 e0       	ldi	r20, 0x00	; 0
     da0:	67 e0       	ldi	r22, 0x07	; 7
     da2:	80 e0       	ldi	r24, 0x00	; 0
     da4:	0e 94 cd 08 	call	0x119a	; 0x119a <DIO_vSetPinVal>
     da8:	40 e0       	ldi	r20, 0x00	; 0
     daa:	64 e0       	ldi	r22, 0x04	; 4
     dac:	80 e0       	ldi	r24, 0x00	; 0
     dae:	0e 94 cd 08 	call	0x119a	; 0x119a <DIO_vSetPinVal>
     db2:	41 e0       	ldi	r20, 0x01	; 1
     db4:	66 e0       	ldi	r22, 0x06	; 6
     db6:	80 e0       	ldi	r24, 0x00	; 0
     db8:	0e 94 cd 08 	call	0x119a	; 0x119a <DIO_vSetPinVal>
     dbc:	40 e0       	ldi	r20, 0x00	; 0
     dbe:	64 e0       	ldi	r22, 0x04	; 4
     dc0:	82 e0       	ldi	r24, 0x02	; 2
     dc2:	0e 94 cd 08 	call	0x119a	; 0x119a <DIO_vSetPinVal>
     dc6:	41 e0       	ldi	r20, 0x01	; 1
     dc8:	65 e0       	ldi	r22, 0x05	; 5
     dca:	82 e0       	ldi	r24, 0x02	; 2
     dcc:	0e 94 cd 08 	call	0x119a	; 0x119a <DIO_vSetPinVal>
     dd0:	40 e0       	ldi	r20, 0x00	; 0
     dd2:	66 e0       	ldi	r22, 0x06	; 6
     dd4:	82 e0       	ldi	r24, 0x02	; 2
     dd6:	0e 94 cd 08 	call	0x119a	; 0x119a <DIO_vSetPinVal>
     dda:	40 e0       	ldi	r20, 0x00	; 0
     ddc:	67 e0       	ldi	r22, 0x07	; 7
     dde:	82 e0       	ldi	r24, 0x02	; 2
     de0:	0e 94 cd 08 	call	0x119a	; 0x119a <DIO_vSetPinVal>
     de4:	40 e0       	ldi	r20, 0x00	; 0
     de6:	66 e0       	ldi	r22, 0x06	; 6
     de8:	80 e0       	ldi	r24, 0x00	; 0
     dea:	0e 94 cd 08 	call	0x119a	; 0x119a <DIO_vSetPinVal>
     dee:	88 e2       	ldi	r24, 0x28	; 40
     df0:	0e 94 ef 05 	call	0xbde	; 0xbde <LCD_vSendCmd>
     df4:	9d e0       	ldi	r25, 0x0D	; 13
     df6:	9a 95       	dec	r25
     df8:	f1 f7       	brne	.-4      	; 0xdf6 <LCD_vInit+0xaa>
     dfa:	8c e0       	ldi	r24, 0x0C	; 12
     dfc:	0e 94 ef 05 	call	0xbde	; 0xbde <LCD_vSendCmd>
     e00:	8d e0       	ldi	r24, 0x0D	; 13
     e02:	8a 95       	dec	r24
     e04:	f1 f7       	brne	.-4      	; 0xe02 <LCD_vInit+0xb6>
     e06:	81 e0       	ldi	r24, 0x01	; 1
     e08:	0e 94 ef 05 	call	0xbde	; 0xbde <LCD_vSendCmd>
     e0c:	8e e7       	ldi	r24, 0x7E	; 126
     e0e:	91 e0       	ldi	r25, 0x01	; 1
     e10:	01 97       	sbiw	r24, 0x01	; 1
     e12:	f1 f7       	brne	.-4      	; 0xe10 <LCD_vInit+0xc4>
     e14:	00 00       	nop
     e16:	86 e0       	ldi	r24, 0x06	; 6
     e18:	0c 94 ef 05 	jmp	0xbde	; 0xbde <LCD_vSendCmd>

00000e1c <LCD_vDispChar>:
     e1c:	0c 94 48 06 	jmp	0xc90	; 0xc90 <LCD_vSendData>

00000e20 <LCD_vDispStr>:
     e20:	0f 93       	push	r16
     e22:	1f 93       	push	r17
     e24:	cf 93       	push	r28
     e26:	8c 01       	movw	r16, r24
     e28:	c0 e0       	ldi	r28, 0x00	; 0
     e2a:	f8 01       	movw	r30, r16
     e2c:	ec 0f       	add	r30, r28
     e2e:	f1 1d       	adc	r31, r1
     e30:	80 81       	ld	r24, Z
     e32:	88 23       	and	r24, r24
     e34:	21 f0       	breq	.+8      	; 0xe3e <LCD_vDispStr+0x1e>
     e36:	0e 94 48 06 	call	0xc90	; 0xc90 <LCD_vSendData>
     e3a:	cf 5f       	subi	r28, 0xFF	; 255
     e3c:	f6 cf       	rjmp	.-20     	; 0xe2a <LCD_vDispStr+0xa>
     e3e:	cf 91       	pop	r28
     e40:	1f 91       	pop	r17
     e42:	0f 91       	pop	r16
     e44:	08 95       	ret

00000e46 <LCD_vClrDisp>:
     e46:	81 e0       	ldi	r24, 0x01	; 1
     e48:	0e 94 ef 05 	call	0xbde	; 0xbde <LCD_vSendCmd>
     e4c:	8e e7       	ldi	r24, 0x7E	; 126
     e4e:	91 e0       	ldi	r25, 0x01	; 1
     e50:	01 97       	sbiw	r24, 0x01	; 1
     e52:	f1 f7       	brne	.-4      	; 0xe50 <LCD_vClrDisp+0xa>
     e54:	00 00       	nop
     e56:	08 95       	ret

00000e58 <LCD_vSetPosition>:
     e58:	88 23       	and	r24, r24
     e5a:	19 f0       	breq	.+6      	; 0xe62 <LCD_vSetPosition+0xa>
     e5c:	81 30       	cpi	r24, 0x01	; 1
     e5e:	19 f0       	breq	.+6      	; 0xe66 <LCD_vSetPosition+0xe>
     e60:	08 95       	ret
     e62:	80 e8       	ldi	r24, 0x80	; 128
     e64:	01 c0       	rjmp	.+2      	; 0xe68 <LCD_vSetPosition+0x10>
     e66:	80 ec       	ldi	r24, 0xC0	; 192
     e68:	86 0f       	add	r24, r22
     e6a:	0c 94 ef 05 	jmp	0xbde	; 0xbde <LCD_vSendCmd>

00000e6e <LCD_vDispNum>:
     e6e:	0f 93       	push	r16
     e70:	1f 93       	push	r17
     e72:	cf 93       	push	r28
     e74:	0e 94 20 05 	call	0xa40	; 0xa40 <u8IntToString>
     e78:	8c 01       	movw	r16, r24
     e7a:	c0 e0       	ldi	r28, 0x00	; 0
     e7c:	f8 01       	movw	r30, r16
     e7e:	ec 0f       	add	r30, r28
     e80:	f1 1d       	adc	r31, r1
     e82:	80 81       	ld	r24, Z
     e84:	88 23       	and	r24, r24
     e86:	21 f0       	breq	.+8      	; 0xe90 <LCD_vDispNum+0x22>
     e88:	0e 94 48 06 	call	0xc90	; 0xc90 <LCD_vSendData>
     e8c:	cf 5f       	subi	r28, 0xFF	; 255
     e8e:	f6 cf       	rjmp	.-20     	; 0xe7c <LCD_vDispNum+0xe>
     e90:	cf 91       	pop	r28
     e92:	1f 91       	pop	r17
     e94:	0f 91       	pop	r16
     e96:	08 95       	ret

00000e98 <LDR_ConvertValue>:
     e98:	cf 92       	push	r12
     e9a:	df 92       	push	r13
     e9c:	ef 92       	push	r14
     e9e:	ff 92       	push	r15
     ea0:	0f 93       	push	r16
     ea2:	1f 93       	push	r17
     ea4:	9c 01       	movw	r18, r24
     ea6:	a8 e8       	ldi	r26, 0x88	; 136
     ea8:	b3 e1       	ldi	r27, 0x13	; 19
     eaa:	0e 94 4b 0f 	call	0x1e96	; 0x1e96 <__umulhisi3>
     eae:	2f ef       	ldi	r18, 0xFF	; 255
     eb0:	33 e0       	ldi	r19, 0x03	; 3
     eb2:	40 e0       	ldi	r20, 0x00	; 0
     eb4:	50 e0       	ldi	r21, 0x00	; 0
     eb6:	0e 94 29 0f 	call	0x1e52	; 0x1e52 <__udivmodsi4>
     eba:	69 01       	movw	r12, r18
     ebc:	7a 01       	movw	r14, r20
     ebe:	a8 ee       	ldi	r26, 0xE8	; 232
     ec0:	b3 e0       	ldi	r27, 0x03	; 3
     ec2:	0e 94 5a 0f 	call	0x1eb4	; 0x1eb4 <__muluhisi3>
     ec6:	08 e8       	ldi	r16, 0x88	; 136
     ec8:	13 e1       	ldi	r17, 0x13	; 19
     eca:	20 e0       	ldi	r18, 0x00	; 0
     ecc:	30 e0       	ldi	r19, 0x00	; 0
     ece:	a9 01       	movw	r20, r18
     ed0:	98 01       	movw	r18, r16
     ed2:	2c 19       	sub	r18, r12
     ed4:	3d 09       	sbc	r19, r13
     ed6:	4e 09       	sbc	r20, r14
     ed8:	5f 09       	sbc	r21, r15
     eda:	0e 94 29 0f 	call	0x1e52	; 0x1e52 <__udivmodsi4>
     ede:	c9 01       	movw	r24, r18
     ee0:	1f 91       	pop	r17
     ee2:	0f 91       	pop	r16
     ee4:	ff 90       	pop	r15
     ee6:	ef 90       	pop	r14
     ee8:	df 90       	pop	r13
     eea:	cf 90       	pop	r12
     eec:	08 95       	ret

00000eee <stateHandler>:
     eee:	80 91 f7 00 	lds	r24, 0x00F7	; 0x8000f7 <G_u8ISRcounter>
     ef2:	8f 5f       	subi	r24, 0xFF	; 255
     ef4:	80 93 f7 00 	sts	0x00F7, r24	; 0x8000f7 <G_u8ISRcounter>
     ef8:	90 91 f8 00 	lds	r25, 0x00F8	; 0x8000f8 <G_u8OvfCounts>
     efc:	89 13       	cpse	r24, r25
     efe:	0b c0       	rjmp	.+22     	; 0xf16 <stateHandler+0x28>
     f00:	40 e0       	ldi	r20, 0x00	; 0
     f02:	63 e0       	ldi	r22, 0x03	; 3
     f04:	80 e0       	ldi	r24, 0x00	; 0
     f06:	0e 94 cd 08 	call	0x119a	; 0x119a <DIO_vSetPinVal>
     f0a:	90 91 f6 00 	lds	r25, 0x00F6	; 0x8000f6 <G_u8CurrentOVf>
     f0e:	80 ee       	ldi	r24, 0xE0	; 224
     f10:	89 1b       	sub	r24, r25
     f12:	0e 94 27 0c 	call	0x184e	; 0x184e <TIM2_vSetPreload>
     f16:	80 91 f7 00 	lds	r24, 0x00F7	; 0x8000f7 <G_u8ISRcounter>
     f1a:	8e 34       	cpi	r24, 0x4E	; 78
     f1c:	59 f4       	brne	.+22     	; 0xf34 <stateHandler+0x46>
     f1e:	41 e0       	ldi	r20, 0x01	; 1
     f20:	63 e0       	ldi	r22, 0x03	; 3
     f22:	80 e0       	ldi	r24, 0x00	; 0
     f24:	0e 94 cd 08 	call	0x119a	; 0x119a <DIO_vSetPinVal>
     f28:	80 91 f6 00 	lds	r24, 0x00F6	; 0x8000f6 <G_u8CurrentOVf>
     f2c:	0e 94 27 0c 	call	0x184e	; 0x184e <TIM2_vSetPreload>
     f30:	10 92 f7 00 	sts	0x00F7, r1	; 0x8000f7 <G_u8ISRcounter>
     f34:	08 95       	ret

00000f36 <SERVO_vInit>:
     f36:	0e 94 14 0c 	call	0x1828	; 0x1828 <TIM2_vInit>
     f3a:	41 e0       	ldi	r20, 0x01	; 1
     f3c:	63 e0       	ldi	r22, 0x03	; 3
     f3e:	80 e0       	ldi	r24, 0x00	; 0
     f40:	0e 94 7c 08 	call	0x10f8	; 0x10f8 <DIO_vSetPinDir>
     f44:	87 e7       	ldi	r24, 0x77	; 119
     f46:	97 e0       	ldi	r25, 0x07	; 7
     f48:	0c 94 29 0c 	jmp	0x1852	; 0x1852 <TIM2_vCallBack_OVF2>

00000f4c <SERVO_vTurnOn>:
     f4c:	0c 94 20 0c 	jmp	0x1840	; 0x1840 <TIM2_vTurnOn>

00000f50 <SERVO_vSetState>:
     f50:	88 23       	and	r24, r24
     f52:	19 f0       	breq	.+6      	; 0xf5a <SERVO_vSetState+0xa>
     f54:	81 30       	cpi	r24, 0x01	; 1
     f56:	41 f0       	breq	.+16     	; 0xf68 <SERVO_vSetState+0x18>
     f58:	08 95       	ret
     f5a:	82 e1       	ldi	r24, 0x12	; 18
     f5c:	80 93 f6 00 	sts	0x00F6, r24	; 0x8000f6 <G_u8CurrentOVf>
     f60:	0e 94 27 0c 	call	0x184e	; 0x184e <TIM2_vSetPreload>
     f64:	82 e0       	ldi	r24, 0x02	; 2
     f66:	06 c0       	rjmp	.+12     	; 0xf74 <SERVO_vSetState+0x24>
     f68:	8c e3       	ldi	r24, 0x3C	; 60
     f6a:	80 93 f6 00 	sts	0x00F6, r24	; 0x8000f6 <G_u8CurrentOVf>
     f6e:	0e 94 27 0c 	call	0x184e	; 0x184e <TIM2_vSetPreload>
     f72:	89 e0       	ldi	r24, 0x09	; 9
     f74:	80 93 f8 00 	sts	0x00F8, r24	; 0x8000f8 <G_u8OvfCounts>
     f78:	08 95       	ret

00000f7a <TEMPS_vInit>:
     f7a:	0c 94 cc 07 	jmp	0xf98	; 0xf98 <ADC_vInit>

00000f7e <TEMPS_ConvertValue>:
     f7e:	9c 01       	movw	r18, r24
     f80:	a4 ef       	ldi	r26, 0xF4	; 244
     f82:	b1 e0       	ldi	r27, 0x01	; 1
     f84:	0e 94 4b 0f 	call	0x1e96	; 0x1e96 <__umulhisi3>
     f88:	2f ef       	ldi	r18, 0xFF	; 255
     f8a:	33 e0       	ldi	r19, 0x03	; 3
     f8c:	40 e0       	ldi	r20, 0x00	; 0
     f8e:	50 e0       	ldi	r21, 0x00	; 0
     f90:	0e 94 29 0f 	call	0x1e52	; 0x1e52 <__udivmodsi4>
     f94:	82 2f       	mov	r24, r18
     f96:	08 95       	ret

00000f98 <ADC_vInit>:
     f98:	40 e0       	ldi	r20, 0x00	; 0
     f9a:	60 e0       	ldi	r22, 0x00	; 0
     f9c:	80 e0       	ldi	r24, 0x00	; 0
     f9e:	0e 94 7c 08 	call	0x10f8	; 0x10f8 <DIO_vSetPinDir>
     fa2:	40 e0       	ldi	r20, 0x00	; 0
     fa4:	61 e0       	ldi	r22, 0x01	; 1
     fa6:	80 e0       	ldi	r24, 0x00	; 0
     fa8:	0e 94 7c 08 	call	0x10f8	; 0x10f8 <DIO_vSetPinDir>
     fac:	86 b1       	in	r24, 0x06	; 6
     fae:	88 7f       	andi	r24, 0xF8	; 248
     fb0:	86 b9       	out	0x06, r24	; 6
     fb2:	86 b1       	in	r24, 0x06	; 6
     fb4:	87 60       	ori	r24, 0x07	; 7
     fb6:	86 b9       	out	0x06, r24	; 6
     fb8:	35 98       	cbi	0x06, 5	; 6
     fba:	87 b1       	in	r24, 0x07	; 7
     fbc:	8f 71       	andi	r24, 0x1F	; 31
     fbe:	80 64       	ori	r24, 0x40	; 64
     fc0:	87 b9       	out	0x07, r24	; 7
     fc2:	37 9a       	sbi	0x06, 7	; 6
     fc4:	08 95       	ret

00000fc6 <ADC_StartChain>:
     fc6:	fc 01       	movw	r30, r24
     fc8:	89 ec       	ldi	r24, 0xC9	; 201
     fca:	80 93 f9 00 	sts	0x00F9, r24	; 0x8000f9 <gISR_conversionMode>
     fce:	80 81       	ld	r24, Z
     fd0:	91 81       	ldd	r25, Z+1	; 0x01
     fd2:	90 93 00 01 	sts	0x0100, r25	; 0x800100 <gAdcChainChannelsArr+0x1>
     fd6:	80 93 ff 00 	sts	0x00FF, r24	; 0x8000ff <gAdcChainChannelsArr>
     fda:	82 81       	ldd	r24, Z+2	; 0x02
     fdc:	93 81       	ldd	r25, Z+3	; 0x03
     fde:	90 93 fe 00 	sts	0x00FE, r25	; 0x8000fe <gAdcChainResultsArr+0x1>
     fe2:	80 93 fd 00 	sts	0x00FD, r24	; 0x8000fd <gAdcChainResultsArr>
     fe6:	84 81       	ldd	r24, Z+4	; 0x04
     fe8:	95 81       	ldd	r25, Z+5	; 0x05
     fea:	90 93 fc 00 	sts	0x00FC, r25	; 0x8000fc <gAdcChainSize+0x1>
     fee:	80 93 fb 00 	sts	0x00FB, r24	; 0x8000fb <gAdcChainSize>
     ff2:	86 81       	ldd	r24, Z+6	; 0x06
     ff4:	97 81       	ldd	r25, Z+7	; 0x07
     ff6:	90 93 02 01 	sts	0x0102, r25	; 0x800102 <ISR_ADCCHAINPTR+0x1>
     ffa:	80 93 01 01 	sts	0x0101, r24	; 0x800101 <ISR_ADCCHAINPTR>
     ffe:	10 92 fa 00 	sts	0x00FA, r1	; 0x8000fa <gAdcChainIndex>
    1002:	87 b1       	in	r24, 0x07	; 7
    1004:	80 7e       	andi	r24, 0xE0	; 224
    1006:	87 b9       	out	0x07, r24	; 7
    1008:	90 91 fa 00 	lds	r25, 0x00FA	; 0x8000fa <gAdcChainIndex>
    100c:	e0 91 ff 00 	lds	r30, 0x00FF	; 0x8000ff <gAdcChainChannelsArr>
    1010:	f0 91 00 01 	lds	r31, 0x0100	; 0x800100 <gAdcChainChannelsArr+0x1>
    1014:	e9 0f       	add	r30, r25
    1016:	f1 1d       	adc	r31, r1
    1018:	90 81       	ld	r25, Z
    101a:	89 2b       	or	r24, r25
    101c:	87 b9       	out	0x07, r24	; 7
    101e:	86 b1       	in	r24, 0x06	; 6
    1020:	88 64       	ori	r24, 0x48	; 72
    1022:	86 b9       	out	0x06, r24	; 6
    1024:	08 95       	ret

00001026 <__vector_16>:
    1026:	1f 92       	push	r1
    1028:	0f 92       	push	r0
    102a:	0f b6       	in	r0, 0x3f	; 63
    102c:	0f 92       	push	r0
    102e:	11 24       	eor	r1, r1
    1030:	2f 93       	push	r18
    1032:	3f 93       	push	r19
    1034:	4f 93       	push	r20
    1036:	5f 93       	push	r21
    1038:	6f 93       	push	r22
    103a:	7f 93       	push	r23
    103c:	8f 93       	push	r24
    103e:	9f 93       	push	r25
    1040:	af 93       	push	r26
    1042:	bf 93       	push	r27
    1044:	ef 93       	push	r30
    1046:	ff 93       	push	r31
    1048:	80 91 f9 00 	lds	r24, 0x00F9	; 0x8000f9 <gISR_conversionMode>
    104c:	88 3c       	cpi	r24, 0xC8	; 200
    104e:	69 f4       	brne	.+26     	; 0x106a <__vector_16+0x44>
    1050:	e0 91 03 01 	lds	r30, 0x0103	; 0x800103 <G_ISR_ADC>
    1054:	f0 91 04 01 	lds	r31, 0x0104	; 0x800104 <G_ISR_ADC+0x1>
    1058:	30 97       	sbiw	r30, 0x00	; 0
    105a:	e9 f1       	breq	.+122    	; 0x10d6 <__vector_16+0xb0>
    105c:	84 b1       	in	r24, 0x04	; 4
    105e:	95 b1       	in	r25, 0x05	; 5
    1060:	90 93 01 00 	sts	0x0001, r25	; 0x800001 <__TEXT_REGION_LENGTH__+0x7f8001>
    1064:	80 93 00 00 	sts	0x0000, r24	; 0x800000 <__TEXT_REGION_LENGTH__+0x7f8000>
    1068:	11 c0       	rjmp	.+34     	; 0x108c <__vector_16+0x66>
    106a:	89 3c       	cpi	r24, 0xC9	; 201
    106c:	a1 f5       	brne	.+104    	; 0x10d6 <__vector_16+0xb0>
    106e:	20 91 fa 00 	lds	r18, 0x00FA	; 0x8000fa <gAdcChainIndex>
    1072:	82 2f       	mov	r24, r18
    1074:	90 e0       	ldi	r25, 0x00	; 0
    1076:	40 91 fb 00 	lds	r20, 0x00FB	; 0x8000fb <gAdcChainSize>
    107a:	50 91 fc 00 	lds	r21, 0x00FC	; 0x8000fc <gAdcChainSize+0x1>
    107e:	48 17       	cp	r20, r24
    1080:	59 07       	cpc	r21, r25
    1082:	39 f4       	brne	.+14     	; 0x1092 <__vector_16+0x6c>
    1084:	e0 91 01 01 	lds	r30, 0x0101	; 0x800101 <ISR_ADCCHAINPTR>
    1088:	f0 91 02 01 	lds	r31, 0x0102	; 0x800102 <ISR_ADCCHAINPTR+0x1>
    108c:	09 95       	icall
    108e:	33 98       	cbi	0x06, 3	; 6
    1090:	22 c0       	rjmp	.+68     	; 0x10d6 <__vector_16+0xb0>
    1092:	44 b1       	in	r20, 0x04	; 4
    1094:	55 b1       	in	r21, 0x05	; 5
    1096:	88 0f       	add	r24, r24
    1098:	99 1f       	adc	r25, r25
    109a:	e0 91 fd 00 	lds	r30, 0x00FD	; 0x8000fd <gAdcChainResultsArr>
    109e:	f0 91 fe 00 	lds	r31, 0x00FE	; 0x8000fe <gAdcChainResultsArr+0x1>
    10a2:	e8 0f       	add	r30, r24
    10a4:	f9 1f       	adc	r31, r25
    10a6:	51 83       	std	Z+1, r21	; 0x01
    10a8:	40 83       	st	Z, r20
    10aa:	2f 5f       	subi	r18, 0xFF	; 255
    10ac:	20 93 fa 00 	sts	0x00FA, r18	; 0x8000fa <gAdcChainIndex>
    10b0:	67 e0       	ldi	r22, 0x07	; 7
    10b2:	83 e0       	ldi	r24, 0x03	; 3
    10b4:	0e 94 66 09 	call	0x12cc	; 0x12cc <DIO_vTogPin>
    10b8:	87 b1       	in	r24, 0x07	; 7
    10ba:	80 7e       	andi	r24, 0xE0	; 224
    10bc:	87 b9       	out	0x07, r24	; 7
    10be:	90 91 fa 00 	lds	r25, 0x00FA	; 0x8000fa <gAdcChainIndex>
    10c2:	e0 91 ff 00 	lds	r30, 0x00FF	; 0x8000ff <gAdcChainChannelsArr>
    10c6:	f0 91 00 01 	lds	r31, 0x0100	; 0x800100 <gAdcChainChannelsArr+0x1>
    10ca:	e9 0f       	add	r30, r25
    10cc:	f1 1d       	adc	r31, r1
    10ce:	90 81       	ld	r25, Z
    10d0:	89 2b       	or	r24, r25
    10d2:	87 b9       	out	0x07, r24	; 7
    10d4:	36 9a       	sbi	0x06, 6	; 6
    10d6:	ff 91       	pop	r31
    10d8:	ef 91       	pop	r30
    10da:	bf 91       	pop	r27
    10dc:	af 91       	pop	r26
    10de:	9f 91       	pop	r25
    10e0:	8f 91       	pop	r24
    10e2:	7f 91       	pop	r23
    10e4:	6f 91       	pop	r22
    10e6:	5f 91       	pop	r21
    10e8:	4f 91       	pop	r20
    10ea:	3f 91       	pop	r19
    10ec:	2f 91       	pop	r18
    10ee:	0f 90       	pop	r0
    10f0:	0f be       	out	0x3f, r0	; 63
    10f2:	0f 90       	pop	r0
    10f4:	1f 90       	pop	r1
    10f6:	18 95       	reti

000010f8 <DIO_vSetPinDir>:
    10f8:	24 2f       	mov	r18, r20
    10fa:	81 30       	cpi	r24, 0x01	; 1
    10fc:	c1 f0       	breq	.+48     	; 0x112e <DIO_vSetPinDir+0x36>
    10fe:	28 f0       	brcs	.+10     	; 0x110a <DIO_vSetPinDir+0x12>
    1100:	82 30       	cpi	r24, 0x02	; 2
    1102:	39 f1       	breq	.+78     	; 0x1152 <DIO_vSetPinDir+0x5a>
    1104:	83 30       	cpi	r24, 0x03	; 3
    1106:	b9 f1       	breq	.+110    	; 0x1176 <DIO_vSetPinDir+0x7e>
    1108:	08 95       	ret
    110a:	41 e0       	ldi	r20, 0x01	; 1
    110c:	50 e0       	ldi	r21, 0x00	; 0
    110e:	06 2e       	mov	r0, r22
    1110:	01 c0       	rjmp	.+2      	; 0x1114 <DIO_vSetPinDir+0x1c>
    1112:	44 0f       	add	r20, r20
    1114:	0a 94       	dec	r0
    1116:	ea f7       	brpl	.-6      	; 0x1112 <DIO_vSetPinDir+0x1a>
    1118:	40 95       	com	r20
    111a:	8a b3       	in	r24, 0x1a	; 26
    111c:	84 23       	and	r24, r20
    111e:	42 2f       	mov	r20, r18
    1120:	01 c0       	rjmp	.+2      	; 0x1124 <DIO_vSetPinDir+0x2c>
    1122:	44 0f       	add	r20, r20
    1124:	6a 95       	dec	r22
    1126:	ea f7       	brpl	.-6      	; 0x1122 <DIO_vSetPinDir+0x2a>
    1128:	48 2b       	or	r20, r24
    112a:	4a bb       	out	0x1a, r20	; 26
    112c:	08 95       	ret
    112e:	81 e0       	ldi	r24, 0x01	; 1
    1130:	90 e0       	ldi	r25, 0x00	; 0
    1132:	06 2e       	mov	r0, r22
    1134:	01 c0       	rjmp	.+2      	; 0x1138 <DIO_vSetPinDir+0x40>
    1136:	88 0f       	add	r24, r24
    1138:	0a 94       	dec	r0
    113a:	ea f7       	brpl	.-6      	; 0x1136 <DIO_vSetPinDir+0x3e>
    113c:	80 95       	com	r24
    113e:	47 b3       	in	r20, 0x17	; 23
    1140:	84 23       	and	r24, r20
    1142:	42 2f       	mov	r20, r18
    1144:	01 c0       	rjmp	.+2      	; 0x1148 <DIO_vSetPinDir+0x50>
    1146:	44 0f       	add	r20, r20
    1148:	6a 95       	dec	r22
    114a:	ea f7       	brpl	.-6      	; 0x1146 <DIO_vSetPinDir+0x4e>
    114c:	48 2b       	or	r20, r24
    114e:	47 bb       	out	0x17, r20	; 23
    1150:	08 95       	ret
    1152:	81 e0       	ldi	r24, 0x01	; 1
    1154:	90 e0       	ldi	r25, 0x00	; 0
    1156:	06 2e       	mov	r0, r22
    1158:	01 c0       	rjmp	.+2      	; 0x115c <DIO_vSetPinDir+0x64>
    115a:	88 0f       	add	r24, r24
    115c:	0a 94       	dec	r0
    115e:	ea f7       	brpl	.-6      	; 0x115a <DIO_vSetPinDir+0x62>
    1160:	80 95       	com	r24
    1162:	44 b3       	in	r20, 0x14	; 20
    1164:	84 23       	and	r24, r20
    1166:	42 2f       	mov	r20, r18
    1168:	01 c0       	rjmp	.+2      	; 0x116c <DIO_vSetPinDir+0x74>
    116a:	44 0f       	add	r20, r20
    116c:	6a 95       	dec	r22
    116e:	ea f7       	brpl	.-6      	; 0x116a <DIO_vSetPinDir+0x72>
    1170:	48 2b       	or	r20, r24
    1172:	44 bb       	out	0x14, r20	; 20
    1174:	08 95       	ret
    1176:	81 e0       	ldi	r24, 0x01	; 1
    1178:	90 e0       	ldi	r25, 0x00	; 0
    117a:	06 2e       	mov	r0, r22
    117c:	01 c0       	rjmp	.+2      	; 0x1180 <DIO_vSetPinDir+0x88>
    117e:	88 0f       	add	r24, r24
    1180:	0a 94       	dec	r0
    1182:	ea f7       	brpl	.-6      	; 0x117e <DIO_vSetPinDir+0x86>
    1184:	80 95       	com	r24
    1186:	41 b3       	in	r20, 0x11	; 17
    1188:	84 23       	and	r24, r20
    118a:	42 2f       	mov	r20, r18
    118c:	01 c0       	rjmp	.+2      	; 0x1190 <DIO_vSetPinDir+0x98>
    118e:	44 0f       	add	r20, r20
    1190:	6a 95       	dec	r22
    1192:	ea f7       	brpl	.-6      	; 0x118e <DIO_vSetPinDir+0x96>
    1194:	48 2b       	or	r20, r24
    1196:	41 bb       	out	0x11, r20	; 17
    1198:	08 95       	ret

0000119a <DIO_vSetPinVal>:
    119a:	24 2f       	mov	r18, r20
    119c:	81 30       	cpi	r24, 0x01	; 1
    119e:	c1 f0       	breq	.+48     	; 0x11d0 <DIO_vSetPinVal+0x36>
    11a0:	28 f0       	brcs	.+10     	; 0x11ac <DIO_vSetPinVal+0x12>
    11a2:	82 30       	cpi	r24, 0x02	; 2
    11a4:	39 f1       	breq	.+78     	; 0x11f4 <DIO_vSetPinVal+0x5a>
    11a6:	83 30       	cpi	r24, 0x03	; 3
    11a8:	b9 f1       	breq	.+110    	; 0x1218 <DIO_vSetPinVal+0x7e>
    11aa:	08 95       	ret
    11ac:	41 e0       	ldi	r20, 0x01	; 1
    11ae:	50 e0       	ldi	r21, 0x00	; 0
    11b0:	06 2e       	mov	r0, r22
    11b2:	01 c0       	rjmp	.+2      	; 0x11b6 <DIO_vSetPinVal+0x1c>
    11b4:	44 0f       	add	r20, r20
    11b6:	0a 94       	dec	r0
    11b8:	ea f7       	brpl	.-6      	; 0x11b4 <DIO_vSetPinVal+0x1a>
    11ba:	40 95       	com	r20
    11bc:	8b b3       	in	r24, 0x1b	; 27
    11be:	84 23       	and	r24, r20
    11c0:	42 2f       	mov	r20, r18
    11c2:	01 c0       	rjmp	.+2      	; 0x11c6 <DIO_vSetPinVal+0x2c>
    11c4:	44 0f       	add	r20, r20
    11c6:	6a 95       	dec	r22
    11c8:	ea f7       	brpl	.-6      	; 0x11c4 <DIO_vSetPinVal+0x2a>
    11ca:	48 2b       	or	r20, r24
    11cc:	4b bb       	out	0x1b, r20	; 27
    11ce:	08 95       	ret
    11d0:	81 e0       	ldi	r24, 0x01	; 1
    11d2:	90 e0       	ldi	r25, 0x00	; 0
    11d4:	06 2e       	mov	r0, r22
    11d6:	01 c0       	rjmp	.+2      	; 0x11da <DIO_vSetPinVal+0x40>
    11d8:	88 0f       	add	r24, r24
    11da:	0a 94       	dec	r0
    11dc:	ea f7       	brpl	.-6      	; 0x11d8 <DIO_vSetPinVal+0x3e>
    11de:	80 95       	com	r24
    11e0:	48 b3       	in	r20, 0x18	; 24
    11e2:	84 23       	and	r24, r20
    11e4:	42 2f       	mov	r20, r18
    11e6:	01 c0       	rjmp	.+2      	; 0x11ea <DIO_vSetPinVal+0x50>
    11e8:	44 0f       	add	r20, r20
    11ea:	6a 95       	dec	r22
    11ec:	ea f7       	brpl	.-6      	; 0x11e8 <DIO_vSetPinVal+0x4e>
    11ee:	48 2b       	or	r20, r24
    11f0:	48 bb       	out	0x18, r20	; 24
    11f2:	08 95       	ret
    11f4:	81 e0       	ldi	r24, 0x01	; 1
    11f6:	90 e0       	ldi	r25, 0x00	; 0
    11f8:	06 2e       	mov	r0, r22
    11fa:	01 c0       	rjmp	.+2      	; 0x11fe <DIO_vSetPinVal+0x64>
    11fc:	88 0f       	add	r24, r24
    11fe:	0a 94       	dec	r0
    1200:	ea f7       	brpl	.-6      	; 0x11fc <DIO_vSetPinVal+0x62>
    1202:	80 95       	com	r24
    1204:	45 b3       	in	r20, 0x15	; 21
    1206:	84 23       	and	r24, r20
    1208:	42 2f       	mov	r20, r18
    120a:	01 c0       	rjmp	.+2      	; 0x120e <DIO_vSetPinVal+0x74>
    120c:	44 0f       	add	r20, r20
    120e:	6a 95       	dec	r22
    1210:	ea f7       	brpl	.-6      	; 0x120c <DIO_vSetPinVal+0x72>
    1212:	48 2b       	or	r20, r24
    1214:	45 bb       	out	0x15, r20	; 21
    1216:	08 95       	ret
    1218:	81 e0       	ldi	r24, 0x01	; 1
    121a:	90 e0       	ldi	r25, 0x00	; 0
    121c:	06 2e       	mov	r0, r22
    121e:	01 c0       	rjmp	.+2      	; 0x1222 <DIO_vSetPinVal+0x88>
    1220:	88 0f       	add	r24, r24
    1222:	0a 94       	dec	r0
    1224:	ea f7       	brpl	.-6      	; 0x1220 <DIO_vSetPinVal+0x86>
    1226:	80 95       	com	r24
    1228:	42 b3       	in	r20, 0x12	; 18
    122a:	84 23       	and	r24, r20
    122c:	42 2f       	mov	r20, r18
    122e:	01 c0       	rjmp	.+2      	; 0x1232 <DIO_vSetPinVal+0x98>
    1230:	44 0f       	add	r20, r20
    1232:	6a 95       	dec	r22
    1234:	ea f7       	brpl	.-6      	; 0x1230 <DIO_vSetPinVal+0x96>
    1236:	48 2b       	or	r20, r24
    1238:	42 bb       	out	0x12, r20	; 18
    123a:	08 95       	ret

0000123c <DIO_vPortVal_Maked>:
    123c:	41 30       	cpi	r20, 0x01	; 1
    123e:	a1 f4       	brne	.+40     	; 0x1268 <DIO_vPortVal_Maked+0x2c>
    1240:	81 30       	cpi	r24, 0x01	; 1
    1242:	49 f0       	breq	.+18     	; 0x1256 <DIO_vPortVal_Maked+0x1a>
    1244:	28 f0       	brcs	.+10     	; 0x1250 <DIO_vPortVal_Maked+0x14>
    1246:	82 30       	cpi	r24, 0x02	; 2
    1248:	49 f0       	breq	.+18     	; 0x125c <DIO_vPortVal_Maked+0x20>
    124a:	83 30       	cpi	r24, 0x03	; 3
    124c:	51 f0       	breq	.+20     	; 0x1262 <DIO_vPortVal_Maked+0x26>
    124e:	08 95       	ret
    1250:	8b b3       	in	r24, 0x1b	; 27
    1252:	68 2b       	or	r22, r24
    1254:	15 c0       	rjmp	.+42     	; 0x1280 <DIO_vPortVal_Maked+0x44>
    1256:	88 b3       	in	r24, 0x18	; 24
    1258:	68 2b       	or	r22, r24
    125a:	16 c0       	rjmp	.+44     	; 0x1288 <DIO_vPortVal_Maked+0x4c>
    125c:	85 b3       	in	r24, 0x15	; 21
    125e:	68 2b       	or	r22, r24
    1260:	17 c0       	rjmp	.+46     	; 0x1290 <DIO_vPortVal_Maked+0x54>
    1262:	82 b3       	in	r24, 0x12	; 18
    1264:	68 2b       	or	r22, r24
    1266:	18 c0       	rjmp	.+48     	; 0x1298 <DIO_vPortVal_Maked+0x5c>
    1268:	41 11       	cpse	r20, r1
    126a:	17 c0       	rjmp	.+46     	; 0x129a <DIO_vPortVal_Maked+0x5e>
    126c:	81 30       	cpi	r24, 0x01	; 1
    126e:	51 f0       	breq	.+20     	; 0x1284 <DIO_vPortVal_Maked+0x48>
    1270:	28 f0       	brcs	.+10     	; 0x127c <DIO_vPortVal_Maked+0x40>
    1272:	82 30       	cpi	r24, 0x02	; 2
    1274:	59 f0       	breq	.+22     	; 0x128c <DIO_vPortVal_Maked+0x50>
    1276:	83 30       	cpi	r24, 0x03	; 3
    1278:	69 f0       	breq	.+26     	; 0x1294 <DIO_vPortVal_Maked+0x58>
    127a:	08 95       	ret
    127c:	8b b3       	in	r24, 0x1b	; 27
    127e:	68 23       	and	r22, r24
    1280:	6b bb       	out	0x1b, r22	; 27
    1282:	08 95       	ret
    1284:	88 b3       	in	r24, 0x18	; 24
    1286:	68 23       	and	r22, r24
    1288:	68 bb       	out	0x18, r22	; 24
    128a:	08 95       	ret
    128c:	85 b3       	in	r24, 0x15	; 21
    128e:	68 23       	and	r22, r24
    1290:	65 bb       	out	0x15, r22	; 21
    1292:	08 95       	ret
    1294:	82 b3       	in	r24, 0x12	; 18
    1296:	68 23       	and	r22, r24
    1298:	62 bb       	out	0x12, r22	; 18
    129a:	08 95       	ret

0000129c <DIO_u8GetPinVal>:
    129c:	81 30       	cpi	r24, 0x01	; 1
    129e:	49 f0       	breq	.+18     	; 0x12b2 <DIO_u8GetPinVal+0x16>
    12a0:	30 f0       	brcs	.+12     	; 0x12ae <DIO_u8GetPinVal+0x12>
    12a2:	82 30       	cpi	r24, 0x02	; 2
    12a4:	41 f0       	breq	.+16     	; 0x12b6 <DIO_u8GetPinVal+0x1a>
    12a6:	83 30       	cpi	r24, 0x03	; 3
    12a8:	79 f4       	brne	.+30     	; 0x12c8 <DIO_u8GetPinVal+0x2c>
    12aa:	80 b3       	in	r24, 0x10	; 16
    12ac:	05 c0       	rjmp	.+10     	; 0x12b8 <DIO_u8GetPinVal+0x1c>
    12ae:	89 b3       	in	r24, 0x19	; 25
    12b0:	03 c0       	rjmp	.+6      	; 0x12b8 <DIO_u8GetPinVal+0x1c>
    12b2:	86 b3       	in	r24, 0x16	; 22
    12b4:	01 c0       	rjmp	.+2      	; 0x12b8 <DIO_u8GetPinVal+0x1c>
    12b6:	83 b3       	in	r24, 0x13	; 19
    12b8:	90 e0       	ldi	r25, 0x00	; 0
    12ba:	02 c0       	rjmp	.+4      	; 0x12c0 <DIO_u8GetPinVal+0x24>
    12bc:	95 95       	asr	r25
    12be:	87 95       	ror	r24
    12c0:	6a 95       	dec	r22
    12c2:	e2 f7       	brpl	.-8      	; 0x12bc <DIO_u8GetPinVal+0x20>
    12c4:	98 2f       	mov	r25, r24
    12c6:	91 70       	andi	r25, 0x01	; 1
    12c8:	89 2f       	mov	r24, r25
    12ca:	08 95       	ret

000012cc <DIO_vTogPin>:
    12cc:	81 30       	cpi	r24, 0x01	; 1
    12ce:	81 f0       	breq	.+32     	; 0x12f0 <DIO_vTogPin+0x24>
    12d0:	28 f0       	brcs	.+10     	; 0x12dc <DIO_vTogPin+0x10>
    12d2:	82 30       	cpi	r24, 0x02	; 2
    12d4:	b9 f0       	breq	.+46     	; 0x1304 <DIO_vTogPin+0x38>
    12d6:	83 30       	cpi	r24, 0x03	; 3
    12d8:	f9 f0       	breq	.+62     	; 0x1318 <DIO_vTogPin+0x4c>
    12da:	08 95       	ret
    12dc:	81 e0       	ldi	r24, 0x01	; 1
    12de:	90 e0       	ldi	r25, 0x00	; 0
    12e0:	01 c0       	rjmp	.+2      	; 0x12e4 <DIO_vTogPin+0x18>
    12e2:	88 0f       	add	r24, r24
    12e4:	6a 95       	dec	r22
    12e6:	ea f7       	brpl	.-6      	; 0x12e2 <DIO_vTogPin+0x16>
    12e8:	9b b3       	in	r25, 0x1b	; 27
    12ea:	89 27       	eor	r24, r25
    12ec:	8b bb       	out	0x1b, r24	; 27
    12ee:	08 95       	ret
    12f0:	81 e0       	ldi	r24, 0x01	; 1
    12f2:	90 e0       	ldi	r25, 0x00	; 0
    12f4:	01 c0       	rjmp	.+2      	; 0x12f8 <DIO_vTogPin+0x2c>
    12f6:	88 0f       	add	r24, r24
    12f8:	6a 95       	dec	r22
    12fa:	ea f7       	brpl	.-6      	; 0x12f6 <DIO_vTogPin+0x2a>
    12fc:	98 b3       	in	r25, 0x18	; 24
    12fe:	89 27       	eor	r24, r25
    1300:	88 bb       	out	0x18, r24	; 24
    1302:	08 95       	ret
    1304:	81 e0       	ldi	r24, 0x01	; 1
    1306:	90 e0       	ldi	r25, 0x00	; 0
    1308:	01 c0       	rjmp	.+2      	; 0x130c <DIO_vTogPin+0x40>
    130a:	88 0f       	add	r24, r24
    130c:	6a 95       	dec	r22
    130e:	ea f7       	brpl	.-6      	; 0x130a <DIO_vTogPin+0x3e>
    1310:	95 b3       	in	r25, 0x15	; 21
    1312:	89 27       	eor	r24, r25
    1314:	85 bb       	out	0x15, r24	; 21
    1316:	08 95       	ret
    1318:	81 e0       	ldi	r24, 0x01	; 1
    131a:	90 e0       	ldi	r25, 0x00	; 0
    131c:	01 c0       	rjmp	.+2      	; 0x1320 <DIO_vTogPin+0x54>
    131e:	88 0f       	add	r24, r24
    1320:	6a 95       	dec	r22
    1322:	ea f7       	brpl	.-6      	; 0x131e <DIO_vTogPin+0x52>
    1324:	92 b3       	in	r25, 0x12	; 18
    1326:	89 27       	eor	r24, r25
    1328:	82 bb       	out	0x12, r24	; 18
    132a:	08 95       	ret

0000132c <EEPROM_vWrite>:
    132c:	e1 99       	sbic	0x1c, 1	; 28
    132e:	fe cf       	rjmp	.-4      	; 0x132c <EEPROM_vWrite>
    1330:	8e bb       	out	0x1e, r24	; 30
    1332:	6d bb       	out	0x1d, r22	; 29
    1334:	e2 9a       	sbi	0x1c, 2	; 28
    1336:	e1 9a       	sbi	0x1c, 1	; 28
    1338:	08 95       	ret

0000133a <EEPROM_u8Read>:
    133a:	e1 99       	sbic	0x1c, 1	; 28
    133c:	fe cf       	rjmp	.-4      	; 0x133a <EEPROM_u8Read>
    133e:	8e bb       	out	0x1e, r24	; 30
    1340:	e0 9a       	sbi	0x1c, 0	; 28
    1342:	8d b3       	in	r24, 0x1d	; 29
    1344:	08 95       	ret

00001346 <EXTI_vInitINT0>:
    1346:	40 e0       	ldi	r20, 0x00	; 0
    1348:	62 e0       	ldi	r22, 0x02	; 2
    134a:	83 e0       	ldi	r24, 0x03	; 3
    134c:	0e 94 7c 08 	call	0x10f8	; 0x10f8 <DIO_vSetPinDir>
    1350:	41 e0       	ldi	r20, 0x01	; 1
    1352:	62 e0       	ldi	r22, 0x02	; 2
    1354:	83 e0       	ldi	r24, 0x03	; 3
    1356:	0e 94 cd 08 	call	0x119a	; 0x119a <DIO_vSetPinVal>
    135a:	8b b7       	in	r24, 0x3b	; 59
    135c:	80 64       	ori	r24, 0x40	; 64
    135e:	8b bf       	out	0x3b, r24	; 59
    1360:	85 b7       	in	r24, 0x35	; 53
    1362:	83 60       	ori	r24, 0x03	; 3
    1364:	85 bf       	out	0x35, r24	; 53
    1366:	08 95       	ret

00001368 <EXTI_vReg_Func>:
    1368:	61 30       	cpi	r22, 0x01	; 1
    136a:	49 f0       	breq	.+18     	; 0x137e <EXTI_vReg_Func+0x16>
    136c:	18 f0       	brcs	.+6      	; 0x1374 <EXTI_vReg_Func+0xc>
    136e:	62 30       	cpi	r22, 0x02	; 2
    1370:	59 f0       	breq	.+22     	; 0x1388 <EXTI_vReg_Func+0x20>
    1372:	08 95       	ret
    1374:	90 93 35 01 	sts	0x0135, r25	; 0x800135 <G_ISR_INT0_ptr+0x1>
    1378:	80 93 34 01 	sts	0x0134, r24	; 0x800134 <G_ISR_INT0_ptr>
    137c:	08 95       	ret
    137e:	90 93 33 01 	sts	0x0133, r25	; 0x800133 <G_ISR_INT1_ptr+0x1>
    1382:	80 93 32 01 	sts	0x0132, r24	; 0x800132 <G_ISR_INT1_ptr>
    1386:	08 95       	ret
    1388:	90 93 37 01 	sts	0x0137, r25	; 0x800137 <G_ISR_INT2_ptr+0x1>
    138c:	80 93 36 01 	sts	0x0136, r24	; 0x800136 <G_ISR_INT2_ptr>
    1390:	08 95       	ret

00001392 <__vector_1>:
    1392:	1f 92       	push	r1
    1394:	0f 92       	push	r0
    1396:	0f b6       	in	r0, 0x3f	; 63
    1398:	0f 92       	push	r0
    139a:	11 24       	eor	r1, r1
    139c:	2f 93       	push	r18
    139e:	3f 93       	push	r19
    13a0:	4f 93       	push	r20
    13a2:	5f 93       	push	r21
    13a4:	6f 93       	push	r22
    13a6:	7f 93       	push	r23
    13a8:	8f 93       	push	r24
    13aa:	9f 93       	push	r25
    13ac:	af 93       	push	r26
    13ae:	bf 93       	push	r27
    13b0:	ef 93       	push	r30
    13b2:	ff 93       	push	r31
    13b4:	e0 91 34 01 	lds	r30, 0x0134	; 0x800134 <G_ISR_INT0_ptr>
    13b8:	f0 91 35 01 	lds	r31, 0x0135	; 0x800135 <G_ISR_INT0_ptr+0x1>
    13bc:	09 95       	icall
    13be:	ff 91       	pop	r31
    13c0:	ef 91       	pop	r30
    13c2:	bf 91       	pop	r27
    13c4:	af 91       	pop	r26
    13c6:	9f 91       	pop	r25
    13c8:	8f 91       	pop	r24
    13ca:	7f 91       	pop	r23
    13cc:	6f 91       	pop	r22
    13ce:	5f 91       	pop	r21
    13d0:	4f 91       	pop	r20
    13d2:	3f 91       	pop	r19
    13d4:	2f 91       	pop	r18
    13d6:	0f 90       	pop	r0
    13d8:	0f be       	out	0x3f, r0	; 63
    13da:	0f 90       	pop	r0
    13dc:	1f 90       	pop	r1
    13de:	18 95       	reti

000013e0 <__vector_2>:
    13e0:	1f 92       	push	r1
    13e2:	0f 92       	push	r0
    13e4:	0f b6       	in	r0, 0x3f	; 63
    13e6:	0f 92       	push	r0
    13e8:	11 24       	eor	r1, r1
    13ea:	2f 93       	push	r18
    13ec:	3f 93       	push	r19
    13ee:	4f 93       	push	r20
    13f0:	5f 93       	push	r21
    13f2:	6f 93       	push	r22
    13f4:	7f 93       	push	r23
    13f6:	8f 93       	push	r24
    13f8:	9f 93       	push	r25
    13fa:	af 93       	push	r26
    13fc:	bf 93       	push	r27
    13fe:	ef 93       	push	r30
    1400:	ff 93       	push	r31
    1402:	e0 91 32 01 	lds	r30, 0x0132	; 0x800132 <G_ISR_INT1_ptr>
    1406:	f0 91 33 01 	lds	r31, 0x0133	; 0x800133 <G_ISR_INT1_ptr+0x1>
    140a:	09 95       	icall
    140c:	ff 91       	pop	r31
    140e:	ef 91       	pop	r30
    1410:	bf 91       	pop	r27
    1412:	af 91       	pop	r26
    1414:	9f 91       	pop	r25
    1416:	8f 91       	pop	r24
    1418:	7f 91       	pop	r23
    141a:	6f 91       	pop	r22
    141c:	5f 91       	pop	r21
    141e:	4f 91       	pop	r20
    1420:	3f 91       	pop	r19
    1422:	2f 91       	pop	r18
    1424:	0f 90       	pop	r0
    1426:	0f be       	out	0x3f, r0	; 63
    1428:	0f 90       	pop	r0
    142a:	1f 90       	pop	r1
    142c:	18 95       	reti

0000142e <__vector_3>:
    142e:	1f 92       	push	r1
    1430:	0f 92       	push	r0
    1432:	0f b6       	in	r0, 0x3f	; 63
    1434:	0f 92       	push	r0
    1436:	11 24       	eor	r1, r1
    1438:	2f 93       	push	r18
    143a:	3f 93       	push	r19
    143c:	4f 93       	push	r20
    143e:	5f 93       	push	r21
    1440:	6f 93       	push	r22
    1442:	7f 93       	push	r23
    1444:	8f 93       	push	r24
    1446:	9f 93       	push	r25
    1448:	af 93       	push	r26
    144a:	bf 93       	push	r27
    144c:	ef 93       	push	r30
    144e:	ff 93       	push	r31
    1450:	e0 91 36 01 	lds	r30, 0x0136	; 0x800136 <G_ISR_INT2_ptr>
    1454:	f0 91 37 01 	lds	r31, 0x0137	; 0x800137 <G_ISR_INT2_ptr+0x1>
    1458:	09 95       	icall
    145a:	ff 91       	pop	r31
    145c:	ef 91       	pop	r30
    145e:	bf 91       	pop	r27
    1460:	af 91       	pop	r26
    1462:	9f 91       	pop	r25
    1464:	8f 91       	pop	r24
    1466:	7f 91       	pop	r23
    1468:	6f 91       	pop	r22
    146a:	5f 91       	pop	r21
    146c:	4f 91       	pop	r20
    146e:	3f 91       	pop	r19
    1470:	2f 91       	pop	r18
    1472:	0f 90       	pop	r0
    1474:	0f be       	out	0x3f, r0	; 63
    1476:	0f 90       	pop	r0
    1478:	1f 90       	pop	r1
    147a:	18 95       	reti

0000147c <GIE_vEnableGlobaLInt>:
    147c:	8f b7       	in	r24, 0x3f	; 63
    147e:	80 68       	ori	r24, 0x80	; 128
    1480:	8f bf       	out	0x3f, r24	; 63
    1482:	08 95       	ret

00001484 <Mcu_Init>:
    1484:	0e 94 bd 07 	call	0xf7a	; 0xf7a <TEMPS_vInit>
    1488:	0e 94 a6 04 	call	0x94c	; 0x94c <HC_vInit>
    148c:	0e 94 a6 06 	call	0xd4c	; 0xd4c <LCD_vInit>
    1490:	0e 94 bb 04 	call	0x976	; 0x976 <KeyPad_vInit>
    1494:	0e 94 3e 0a 	call	0x147c	; 0x147c <GIE_vEnableGlobaLInt>
    1498:	0e 94 52 0a 	call	0x14a4	; 0x14a4 <TIM0_vInit>
    149c:	0e 94 a3 09 	call	0x1346	; 0x1346 <EXTI_vInitINT0>
    14a0:	0c 94 12 0b 	jmp	0x1624	; 0x1624 <TIM1_vInit>

000014a4 <TIM0_vInit>:
    14a4:	83 b7       	in	r24, 0x33	; 51
    14a6:	87 7b       	andi	r24, 0xB7	; 183
    14a8:	83 bf       	out	0x33, r24	; 51
    14aa:	83 b7       	in	r24, 0x33	; 51
    14ac:	83 bf       	out	0x33, r24	; 51
    14ae:	89 b7       	in	r24, 0x39	; 57
    14b0:	81 60       	ori	r24, 0x01	; 1
    14b2:	89 bf       	out	0x39, r24	; 57
    14b4:	83 b7       	in	r24, 0x33	; 51
    14b6:	8f 7c       	andi	r24, 0xCF	; 207
    14b8:	83 bf       	out	0x33, r24	; 51
    14ba:	83 b7       	in	r24, 0x33	; 51
    14bc:	83 bf       	out	0x33, r24	; 51
    14be:	83 b7       	in	r24, 0x33	; 51
    14c0:	8f 77       	andi	r24, 0x7F	; 127
    14c2:	83 bf       	out	0x33, r24	; 51
    14c4:	08 95       	ret

000014c6 <TIM0_vTurnOn>:
    14c6:	83 b7       	in	r24, 0x33	; 51
    14c8:	88 7f       	andi	r24, 0xF8	; 248
    14ca:	83 bf       	out	0x33, r24	; 51
    14cc:	83 b7       	in	r24, 0x33	; 51
    14ce:	85 60       	ori	r24, 0x05	; 5
    14d0:	83 bf       	out	0x33, r24	; 51
    14d2:	08 95       	ret

000014d4 <TIM0_vTurnOff>:
    14d4:	83 b7       	in	r24, 0x33	; 51
    14d6:	88 7f       	andi	r24, 0xF8	; 248
    14d8:	83 bf       	out	0x33, r24	; 51
    14da:	83 b7       	in	r24, 0x33	; 51
    14dc:	83 bf       	out	0x33, r24	; 51
    14de:	08 95       	ret

000014e0 <TIM0_vDelayMilli>:
    14e0:	cf 92       	push	r12
    14e2:	df 92       	push	r13
    14e4:	ef 92       	push	r14
    14e6:	ff 92       	push	r15
    14e8:	cf 93       	push	r28
    14ea:	df 93       	push	r29
    14ec:	ea 01       	movw	r28, r20
    14ee:	10 92 06 01 	sts	0x0106, r1	; 0x800106 <G_u16ISRCounter+0x1>
    14f2:	10 92 05 01 	sts	0x0105, r1	; 0x800105 <G_u16ISRCounter>
    14f6:	bc 01       	movw	r22, r24
    14f8:	80 e0       	ldi	r24, 0x00	; 0
    14fa:	90 e0       	ldi	r25, 0x00	; 0
    14fc:	0e 94 5a 0e 	call	0x1cb4	; 0x1cb4 <__floatunsisf>
    1500:	2f e6       	ldi	r18, 0x6F	; 111
    1502:	32 e1       	ldi	r19, 0x12	; 18
    1504:	43 e0       	ldi	r20, 0x03	; 3
    1506:	52 e4       	ldi	r21, 0x42	; 66
    1508:	0e 94 b9 0d 	call	0x1b72	; 0x1b72 <__divsf3>
    150c:	6b 01       	movw	r12, r22
    150e:	7c 01       	movw	r14, r24
    1510:	0e 94 a2 0d 	call	0x1b44	; 0x1b44 <ceil>
    1514:	0e 94 2b 0e 	call	0x1c56	; 0x1c56 <__fixunssfsi>
    1518:	70 93 09 01 	sts	0x0109, r23	; 0x800109 <G_u16Timer0_Cov+0x1>
    151c:	60 93 08 01 	sts	0x0108, r22	; 0x800108 <G_u16Timer0_Cov>
    1520:	d0 93 0d 01 	sts	0x010D, r29	; 0x80010d <G_PTRF_TIM0_OVF+0x1>
    1524:	c0 93 0c 01 	sts	0x010C, r28	; 0x80010c <G_PTRF_TIM0_OVF>
    1528:	80 e0       	ldi	r24, 0x00	; 0
    152a:	90 e0       	ldi	r25, 0x00	; 0
    152c:	0e 94 5a 0e 	call	0x1cb4	; 0x1cb4 <__floatunsisf>
    1530:	a7 01       	movw	r20, r14
    1532:	96 01       	movw	r18, r12
    1534:	0e 94 35 0d 	call	0x1a6a	; 0x1a6a <__subsf3>
    1538:	0e 94 2b 0e 	call	0x1c56	; 0x1c56 <__fixunssfsi>
    153c:	62 bf       	out	0x32, r22	; 50
    153e:	60 93 07 01 	sts	0x0107, r22	; 0x800107 <G_u8Timer0_Preload_Val>
    1542:	df 91       	pop	r29
    1544:	cf 91       	pop	r28
    1546:	ff 90       	pop	r15
    1548:	ef 90       	pop	r14
    154a:	df 90       	pop	r13
    154c:	cf 90       	pop	r12
    154e:	08 95       	ret

00001550 <__vector_10>:
    1550:	1f 92       	push	r1
    1552:	0f 92       	push	r0
    1554:	0f b6       	in	r0, 0x3f	; 63
    1556:	0f 92       	push	r0
    1558:	11 24       	eor	r1, r1
    155a:	2f 93       	push	r18
    155c:	3f 93       	push	r19
    155e:	4f 93       	push	r20
    1560:	5f 93       	push	r21
    1562:	6f 93       	push	r22
    1564:	7f 93       	push	r23
    1566:	8f 93       	push	r24
    1568:	9f 93       	push	r25
    156a:	af 93       	push	r26
    156c:	bf 93       	push	r27
    156e:	ef 93       	push	r30
    1570:	ff 93       	push	r31
    1572:	e0 91 0a 01 	lds	r30, 0x010A	; 0x80010a <G_PTRF_TIM0_CTC>
    1576:	f0 91 0b 01 	lds	r31, 0x010B	; 0x80010b <G_PTRF_TIM0_CTC+0x1>
    157a:	30 97       	sbiw	r30, 0x00	; 0
    157c:	09 f0       	breq	.+2      	; 0x1580 <__vector_10+0x30>
    157e:	09 95       	icall
    1580:	ff 91       	pop	r31
    1582:	ef 91       	pop	r30
    1584:	bf 91       	pop	r27
    1586:	af 91       	pop	r26
    1588:	9f 91       	pop	r25
    158a:	8f 91       	pop	r24
    158c:	7f 91       	pop	r23
    158e:	6f 91       	pop	r22
    1590:	5f 91       	pop	r21
    1592:	4f 91       	pop	r20
    1594:	3f 91       	pop	r19
    1596:	2f 91       	pop	r18
    1598:	0f 90       	pop	r0
    159a:	0f be       	out	0x3f, r0	; 63
    159c:	0f 90       	pop	r0
    159e:	1f 90       	pop	r1
    15a0:	18 95       	reti

000015a2 <__vector_11>:
    15a2:	1f 92       	push	r1
    15a4:	0f 92       	push	r0
    15a6:	0f b6       	in	r0, 0x3f	; 63
    15a8:	0f 92       	push	r0
    15aa:	11 24       	eor	r1, r1
    15ac:	2f 93       	push	r18
    15ae:	3f 93       	push	r19
    15b0:	4f 93       	push	r20
    15b2:	5f 93       	push	r21
    15b4:	6f 93       	push	r22
    15b6:	7f 93       	push	r23
    15b8:	8f 93       	push	r24
    15ba:	9f 93       	push	r25
    15bc:	af 93       	push	r26
    15be:	bf 93       	push	r27
    15c0:	ef 93       	push	r30
    15c2:	ff 93       	push	r31
    15c4:	e0 91 0c 01 	lds	r30, 0x010C	; 0x80010c <G_PTRF_TIM0_OVF>
    15c8:	f0 91 0d 01 	lds	r31, 0x010D	; 0x80010d <G_PTRF_TIM0_OVF+0x1>
    15cc:	30 97       	sbiw	r30, 0x00	; 0
    15ce:	c9 f0       	breq	.+50     	; 0x1602 <__vector_11+0x60>
    15d0:	80 91 05 01 	lds	r24, 0x0105	; 0x800105 <G_u16ISRCounter>
    15d4:	90 91 06 01 	lds	r25, 0x0106	; 0x800106 <G_u16ISRCounter+0x1>
    15d8:	20 91 08 01 	lds	r18, 0x0108	; 0x800108 <G_u16Timer0_Cov>
    15dc:	30 91 09 01 	lds	r19, 0x0109	; 0x800109 <G_u16Timer0_Cov+0x1>
    15e0:	82 17       	cp	r24, r18
    15e2:	93 07       	cpc	r25, r19
    15e4:	49 f4       	brne	.+18     	; 0x15f8 <__vector_11+0x56>
    15e6:	10 92 06 01 	sts	0x0106, r1	; 0x800106 <G_u16ISRCounter+0x1>
    15ea:	10 92 05 01 	sts	0x0105, r1	; 0x800105 <G_u16ISRCounter>
    15ee:	09 95       	icall
    15f0:	80 91 07 01 	lds	r24, 0x0107	; 0x800107 <G_u8Timer0_Preload_Val>
    15f4:	82 bf       	out	0x32, r24	; 50
    15f6:	05 c0       	rjmp	.+10     	; 0x1602 <__vector_11+0x60>
    15f8:	01 96       	adiw	r24, 0x01	; 1
    15fa:	90 93 06 01 	sts	0x0106, r25	; 0x800106 <G_u16ISRCounter+0x1>
    15fe:	80 93 05 01 	sts	0x0105, r24	; 0x800105 <G_u16ISRCounter>
    1602:	ff 91       	pop	r31
    1604:	ef 91       	pop	r30
    1606:	bf 91       	pop	r27
    1608:	af 91       	pop	r26
    160a:	9f 91       	pop	r25
    160c:	8f 91       	pop	r24
    160e:	7f 91       	pop	r23
    1610:	6f 91       	pop	r22
    1612:	5f 91       	pop	r21
    1614:	4f 91       	pop	r20
    1616:	3f 91       	pop	r19
    1618:	2f 91       	pop	r18
    161a:	0f 90       	pop	r0
    161c:	0f be       	out	0x3f, r0	; 63
    161e:	0f 90       	pop	r0
    1620:	1f 90       	pop	r1
    1622:	18 95       	reti

00001624 <TIM1_vInit>:
    1624:	8f b5       	in	r24, 0x2f	; 47
    1626:	8e 7f       	andi	r24, 0xFE	; 254
    1628:	8f bd       	out	0x2f, r24	; 47
    162a:	8f b5       	in	r24, 0x2f	; 47
    162c:	82 60       	ori	r24, 0x02	; 2
    162e:	8f bd       	out	0x2f, r24	; 47
    1630:	8e b5       	in	r24, 0x2e	; 46
    1632:	88 61       	ori	r24, 0x18	; 24
    1634:	8e bd       	out	0x2e, r24	; 46
    1636:	8f b5       	in	r24, 0x2f	; 47
    1638:	80 68       	ori	r24, 0x80	; 128
    163a:	8f bd       	out	0x2f, r24	; 47
    163c:	8f b5       	in	r24, 0x2f	; 47
    163e:	8f 7b       	andi	r24, 0xBF	; 191
    1640:	8f bd       	out	0x2f, r24	; 47
    1642:	41 e0       	ldi	r20, 0x01	; 1
    1644:	65 e0       	ldi	r22, 0x05	; 5
    1646:	83 e0       	ldi	r24, 0x03	; 3
    1648:	0e 94 7c 08 	call	0x10f8	; 0x10f8 <DIO_vSetPinDir>
    164c:	8f b5       	in	r24, 0x2f	; 47
    164e:	80 62       	ori	r24, 0x20	; 32
    1650:	8f bd       	out	0x2f, r24	; 47
    1652:	8f b5       	in	r24, 0x2f	; 47
    1654:	8f 7e       	andi	r24, 0xEF	; 239
    1656:	8f bd       	out	0x2f, r24	; 47
    1658:	41 e0       	ldi	r20, 0x01	; 1
    165a:	64 e0       	ldi	r22, 0x04	; 4
    165c:	83 e0       	ldi	r24, 0x03	; 3
    165e:	0e 94 7c 08 	call	0x10f8	; 0x10f8 <DIO_vSetPinDir>
    1662:	8f b5       	in	r24, 0x2f	; 47
    1664:	8b 7f       	andi	r24, 0xFB	; 251
    1666:	8f bd       	out	0x2f, r24	; 47
    1668:	8f b5       	in	r24, 0x2f	; 47
    166a:	87 7f       	andi	r24, 0xF7	; 247
    166c:	8f bd       	out	0x2f, r24	; 47
    166e:	08 95       	ret

00001670 <TIM1_vTurnOn>:
    1670:	8e b5       	in	r24, 0x2e	; 46
    1672:	88 7f       	andi	r24, 0xF8	; 248
    1674:	8e bd       	out	0x2e, r24	; 46
    1676:	8e b5       	in	r24, 0x2e	; 46
    1678:	85 60       	ori	r24, 0x05	; 5
    167a:	8e bd       	out	0x2e, r24	; 46
    167c:	08 95       	ret

0000167e <TIM1_vSetDutyCycleOC1B>:
    167e:	68 2f       	mov	r22, r24
    1680:	70 e0       	ldi	r23, 0x00	; 0
    1682:	71 95       	neg	r23
    1684:	61 95       	neg	r22
    1686:	71 09       	sbc	r23, r1
    1688:	80 e0       	ldi	r24, 0x00	; 0
    168a:	90 e0       	ldi	r25, 0x00	; 0
    168c:	0e 94 5a 0e 	call	0x1cb4	; 0x1cb4 <__floatunsisf>
    1690:	20 e0       	ldi	r18, 0x00	; 0
    1692:	30 e0       	ldi	r19, 0x00	; 0
    1694:	48 ec       	ldi	r20, 0xC8	; 200
    1696:	52 e4       	ldi	r21, 0x42	; 66
    1698:	0e 94 b9 0d 	call	0x1b72	; 0x1b72 <__divsf3>
    169c:	0e 94 2b 0e 	call	0x1c56	; 0x1c56 <__fixunssfsi>
    16a0:	79 bd       	out	0x29, r23	; 41
    16a2:	68 bd       	out	0x28, r22	; 40
    16a4:	08 95       	ret

000016a6 <__vector_6>:
    16a6:	1f 92       	push	r1
    16a8:	0f 92       	push	r0
    16aa:	0f b6       	in	r0, 0x3f	; 63
    16ac:	0f 92       	push	r0
    16ae:	11 24       	eor	r1, r1
    16b0:	2f 93       	push	r18
    16b2:	3f 93       	push	r19
    16b4:	4f 93       	push	r20
    16b6:	5f 93       	push	r21
    16b8:	6f 93       	push	r22
    16ba:	7f 93       	push	r23
    16bc:	8f 93       	push	r24
    16be:	9f 93       	push	r25
    16c0:	af 93       	push	r26
    16c2:	bf 93       	push	r27
    16c4:	ef 93       	push	r30
    16c6:	ff 93       	push	r31
    16c8:	e0 91 14 01 	lds	r30, 0x0114	; 0x800114 <G_PTRF_TIM1_ICF1>
    16cc:	f0 91 15 01 	lds	r31, 0x0115	; 0x800115 <G_PTRF_TIM1_ICF1+0x1>
    16d0:	30 97       	sbiw	r30, 0x00	; 0
    16d2:	09 f0       	breq	.+2      	; 0x16d6 <__vector_6+0x30>
    16d4:	09 95       	icall
    16d6:	ff 91       	pop	r31
    16d8:	ef 91       	pop	r30
    16da:	bf 91       	pop	r27
    16dc:	af 91       	pop	r26
    16de:	9f 91       	pop	r25
    16e0:	8f 91       	pop	r24
    16e2:	7f 91       	pop	r23
    16e4:	6f 91       	pop	r22
    16e6:	5f 91       	pop	r21
    16e8:	4f 91       	pop	r20
    16ea:	3f 91       	pop	r19
    16ec:	2f 91       	pop	r18
    16ee:	0f 90       	pop	r0
    16f0:	0f be       	out	0x3f, r0	; 63
    16f2:	0f 90       	pop	r0
    16f4:	1f 90       	pop	r1
    16f6:	18 95       	reti

000016f8 <__vector_7>:
    16f8:	1f 92       	push	r1
    16fa:	0f 92       	push	r0
    16fc:	0f b6       	in	r0, 0x3f	; 63
    16fe:	0f 92       	push	r0
    1700:	11 24       	eor	r1, r1
    1702:	2f 93       	push	r18
    1704:	3f 93       	push	r19
    1706:	4f 93       	push	r20
    1708:	5f 93       	push	r21
    170a:	6f 93       	push	r22
    170c:	7f 93       	push	r23
    170e:	8f 93       	push	r24
    1710:	9f 93       	push	r25
    1712:	af 93       	push	r26
    1714:	bf 93       	push	r27
    1716:	ef 93       	push	r30
    1718:	ff 93       	push	r31
    171a:	e0 91 18 01 	lds	r30, 0x0118	; 0x800118 <G_PTRF_TIM1_OC1AF>
    171e:	f0 91 19 01 	lds	r31, 0x0119	; 0x800119 <G_PTRF_TIM1_OC1AF+0x1>
    1722:	30 97       	sbiw	r30, 0x00	; 0
    1724:	09 f0       	breq	.+2      	; 0x1728 <__vector_7+0x30>
    1726:	09 95       	icall
    1728:	ff 91       	pop	r31
    172a:	ef 91       	pop	r30
    172c:	bf 91       	pop	r27
    172e:	af 91       	pop	r26
    1730:	9f 91       	pop	r25
    1732:	8f 91       	pop	r24
    1734:	7f 91       	pop	r23
    1736:	6f 91       	pop	r22
    1738:	5f 91       	pop	r21
    173a:	4f 91       	pop	r20
    173c:	3f 91       	pop	r19
    173e:	2f 91       	pop	r18
    1740:	0f 90       	pop	r0
    1742:	0f be       	out	0x3f, r0	; 63
    1744:	0f 90       	pop	r0
    1746:	1f 90       	pop	r1
    1748:	18 95       	reti

0000174a <__vector_8>:
    174a:	1f 92       	push	r1
    174c:	0f 92       	push	r0
    174e:	0f b6       	in	r0, 0x3f	; 63
    1750:	0f 92       	push	r0
    1752:	11 24       	eor	r1, r1
    1754:	2f 93       	push	r18
    1756:	3f 93       	push	r19
    1758:	4f 93       	push	r20
    175a:	5f 93       	push	r21
    175c:	6f 93       	push	r22
    175e:	7f 93       	push	r23
    1760:	8f 93       	push	r24
    1762:	9f 93       	push	r25
    1764:	af 93       	push	r26
    1766:	bf 93       	push	r27
    1768:	ef 93       	push	r30
    176a:	ff 93       	push	r31
    176c:	e0 91 16 01 	lds	r30, 0x0116	; 0x800116 <G_PTRF_TIM1_OC1BF>
    1770:	f0 91 17 01 	lds	r31, 0x0117	; 0x800117 <G_PTRF_TIM1_OC1BF+0x1>
    1774:	30 97       	sbiw	r30, 0x00	; 0
    1776:	09 f0       	breq	.+2      	; 0x177a <__vector_8+0x30>
    1778:	09 95       	icall
    177a:	ff 91       	pop	r31
    177c:	ef 91       	pop	r30
    177e:	bf 91       	pop	r27
    1780:	af 91       	pop	r26
    1782:	9f 91       	pop	r25
    1784:	8f 91       	pop	r24
    1786:	7f 91       	pop	r23
    1788:	6f 91       	pop	r22
    178a:	5f 91       	pop	r21
    178c:	4f 91       	pop	r20
    178e:	3f 91       	pop	r19
    1790:	2f 91       	pop	r18
    1792:	0f 90       	pop	r0
    1794:	0f be       	out	0x3f, r0	; 63
    1796:	0f 90       	pop	r0
    1798:	1f 90       	pop	r1
    179a:	18 95       	reti

0000179c <__vector_9>:
    179c:	1f 92       	push	r1
    179e:	0f 92       	push	r0
    17a0:	0f b6       	in	r0, 0x3f	; 63
    17a2:	0f 92       	push	r0
    17a4:	11 24       	eor	r1, r1
    17a6:	2f 93       	push	r18
    17a8:	3f 93       	push	r19
    17aa:	4f 93       	push	r20
    17ac:	5f 93       	push	r21
    17ae:	6f 93       	push	r22
    17b0:	7f 93       	push	r23
    17b2:	8f 93       	push	r24
    17b4:	9f 93       	push	r25
    17b6:	af 93       	push	r26
    17b8:	bf 93       	push	r27
    17ba:	ef 93       	push	r30
    17bc:	ff 93       	push	r31
    17be:	e0 91 1a 01 	lds	r30, 0x011A	; 0x80011a <G_PTRF_TIM1_OVF>
    17c2:	f0 91 1b 01 	lds	r31, 0x011B	; 0x80011b <G_PTRF_TIM1_OVF+0x1>
    17c6:	30 97       	sbiw	r30, 0x00	; 0
    17c8:	f1 f0       	breq	.+60     	; 0x1806 <__vector_9+0x6a>
    17ca:	80 91 0e 01 	lds	r24, 0x010E	; 0x80010e <G_u16ISRCounter>
    17ce:	90 91 0f 01 	lds	r25, 0x010F	; 0x80010f <G_u16ISRCounter+0x1>
    17d2:	20 91 12 01 	lds	r18, 0x0112	; 0x800112 <G_u16Timer1_Cov>
    17d6:	30 91 13 01 	lds	r19, 0x0113	; 0x800113 <G_u16Timer1_Cov+0x1>
    17da:	82 17       	cp	r24, r18
    17dc:	93 07       	cpc	r25, r19
    17de:	71 f4       	brne	.+28     	; 0x17fc <__vector_9+0x60>
    17e0:	81 e0       	ldi	r24, 0x01	; 1
    17e2:	90 e0       	ldi	r25, 0x00	; 0
    17e4:	90 93 0f 01 	sts	0x010F, r25	; 0x80010f <G_u16ISRCounter+0x1>
    17e8:	80 93 0e 01 	sts	0x010E, r24	; 0x80010e <G_u16ISRCounter>
    17ec:	09 95       	icall
    17ee:	80 91 10 01 	lds	r24, 0x0110	; 0x800110 <G_u16Timer1_Preload_Val>
    17f2:	90 91 11 01 	lds	r25, 0x0111	; 0x800111 <G_u16Timer1_Preload_Val+0x1>
    17f6:	9d bd       	out	0x2d, r25	; 45
    17f8:	8c bd       	out	0x2c, r24	; 44
    17fa:	05 c0       	rjmp	.+10     	; 0x1806 <__vector_9+0x6a>
    17fc:	01 96       	adiw	r24, 0x01	; 1
    17fe:	90 93 0f 01 	sts	0x010F, r25	; 0x80010f <G_u16ISRCounter+0x1>
    1802:	80 93 0e 01 	sts	0x010E, r24	; 0x80010e <G_u16ISRCounter>
    1806:	ff 91       	pop	r31
    1808:	ef 91       	pop	r30
    180a:	bf 91       	pop	r27
    180c:	af 91       	pop	r26
    180e:	9f 91       	pop	r25
    1810:	8f 91       	pop	r24
    1812:	7f 91       	pop	r23
    1814:	6f 91       	pop	r22
    1816:	5f 91       	pop	r21
    1818:	4f 91       	pop	r20
    181a:	3f 91       	pop	r19
    181c:	2f 91       	pop	r18
    181e:	0f 90       	pop	r0
    1820:	0f be       	out	0x3f, r0	; 63
    1822:	0f 90       	pop	r0
    1824:	1f 90       	pop	r1
    1826:	18 95       	reti

00001828 <TIM2_vInit>:
    1828:	85 b5       	in	r24, 0x25	; 37
    182a:	87 7b       	andi	r24, 0xB7	; 183
    182c:	85 bd       	out	0x25, r24	; 37
    182e:	85 b5       	in	r24, 0x25	; 37
    1830:	85 bd       	out	0x25, r24	; 37
    1832:	89 b7       	in	r24, 0x39	; 57
    1834:	80 64       	ori	r24, 0x40	; 64
    1836:	89 bf       	out	0x39, r24	; 57
    1838:	85 b5       	in	r24, 0x25	; 37
    183a:	8f 77       	andi	r24, 0x7F	; 127
    183c:	85 bd       	out	0x25, r24	; 37
    183e:	08 95       	ret

00001840 <TIM2_vTurnOn>:
    1840:	85 b5       	in	r24, 0x25	; 37
    1842:	88 7f       	andi	r24, 0xF8	; 248
    1844:	85 bd       	out	0x25, r24	; 37
    1846:	85 b5       	in	r24, 0x25	; 37
    1848:	82 60       	ori	r24, 0x02	; 2
    184a:	85 bd       	out	0x25, r24	; 37
    184c:	08 95       	ret

0000184e <TIM2_vSetPreload>:
    184e:	84 bd       	out	0x24, r24	; 36
    1850:	08 95       	ret

00001852 <TIM2_vCallBack_OVF2>:
    1852:	90 93 1f 01 	sts	0x011F, r25	; 0x80011f <G_PTRF_TIM2_OVF+0x1>
    1856:	80 93 1e 01 	sts	0x011E, r24	; 0x80011e <G_PTRF_TIM2_OVF>
    185a:	08 95       	ret

0000185c <__vector_4>:
    185c:	1f 92       	push	r1
    185e:	0f 92       	push	r0
    1860:	0f b6       	in	r0, 0x3f	; 63
    1862:	0f 92       	push	r0
    1864:	11 24       	eor	r1, r1
    1866:	2f 93       	push	r18
    1868:	3f 93       	push	r19
    186a:	4f 93       	push	r20
    186c:	5f 93       	push	r21
    186e:	6f 93       	push	r22
    1870:	7f 93       	push	r23
    1872:	8f 93       	push	r24
    1874:	9f 93       	push	r25
    1876:	af 93       	push	r26
    1878:	bf 93       	push	r27
    187a:	ef 93       	push	r30
    187c:	ff 93       	push	r31
    187e:	e0 91 1c 01 	lds	r30, 0x011C	; 0x80011c <G_PTRF_TIM2_CTC>
    1882:	f0 91 1d 01 	lds	r31, 0x011D	; 0x80011d <G_PTRF_TIM2_CTC+0x1>
    1886:	30 97       	sbiw	r30, 0x00	; 0
    1888:	09 f0       	breq	.+2      	; 0x188c <__vector_4+0x30>
    188a:	09 95       	icall
    188c:	ff 91       	pop	r31
    188e:	ef 91       	pop	r30
    1890:	bf 91       	pop	r27
    1892:	af 91       	pop	r26
    1894:	9f 91       	pop	r25
    1896:	8f 91       	pop	r24
    1898:	7f 91       	pop	r23
    189a:	6f 91       	pop	r22
    189c:	5f 91       	pop	r21
    189e:	4f 91       	pop	r20
    18a0:	3f 91       	pop	r19
    18a2:	2f 91       	pop	r18
    18a4:	0f 90       	pop	r0
    18a6:	0f be       	out	0x3f, r0	; 63
    18a8:	0f 90       	pop	r0
    18aa:	1f 90       	pop	r1
    18ac:	18 95       	reti

000018ae <__vector_5>:
    18ae:	1f 92       	push	r1
    18b0:	0f 92       	push	r0
    18b2:	0f b6       	in	r0, 0x3f	; 63
    18b4:	0f 92       	push	r0
    18b6:	11 24       	eor	r1, r1
    18b8:	2f 93       	push	r18
    18ba:	3f 93       	push	r19
    18bc:	4f 93       	push	r20
    18be:	5f 93       	push	r21
    18c0:	6f 93       	push	r22
    18c2:	7f 93       	push	r23
    18c4:	8f 93       	push	r24
    18c6:	9f 93       	push	r25
    18c8:	af 93       	push	r26
    18ca:	bf 93       	push	r27
    18cc:	ef 93       	push	r30
    18ce:	ff 93       	push	r31
    18d0:	e0 91 1e 01 	lds	r30, 0x011E	; 0x80011e <G_PTRF_TIM2_OVF>
    18d4:	f0 91 1f 01 	lds	r31, 0x011F	; 0x80011f <G_PTRF_TIM2_OVF+0x1>
    18d8:	30 97       	sbiw	r30, 0x00	; 0
    18da:	09 f0       	breq	.+2      	; 0x18de <__vector_5+0x30>
    18dc:	09 95       	icall
    18de:	ff 91       	pop	r31
    18e0:	ef 91       	pop	r30
    18e2:	bf 91       	pop	r27
    18e4:	af 91       	pop	r26
    18e6:	9f 91       	pop	r25
    18e8:	8f 91       	pop	r24
    18ea:	7f 91       	pop	r23
    18ec:	6f 91       	pop	r22
    18ee:	5f 91       	pop	r21
    18f0:	4f 91       	pop	r20
    18f2:	3f 91       	pop	r19
    18f4:	2f 91       	pop	r18
    18f6:	0f 90       	pop	r0
    18f8:	0f be       	out	0x3f, r0	; 63
    18fa:	0f 90       	pop	r0
    18fc:	1f 90       	pop	r1
    18fe:	18 95       	reti

00001900 <UART_vInit>:
    1900:	1a b8       	out	0x0a, r1	; 10
    1902:	2a b1       	in	r18, 0x0a	; 10
    1904:	28 69       	ori	r18, 0x98	; 152
    1906:	2a b9       	out	0x0a, r18	; 10
    1908:	20 e8       	ldi	r18, 0x80	; 128
    190a:	20 bd       	out	0x20, r18	; 32
    190c:	20 b5       	in	r18, 0x20	; 32
    190e:	20 68       	ori	r18, 0x80	; 128
    1910:	20 bd       	out	0x20, r18	; 32
    1912:	20 b5       	in	r18, 0x20	; 32
    1914:	26 68       	ori	r18, 0x86	; 134
    1916:	20 bd       	out	0x20, r18	; 32
    1918:	90 bd       	out	0x20, r25	; 32
    191a:	89 b9       	out	0x09, r24	; 9
    191c:	41 e0       	ldi	r20, 0x01	; 1
    191e:	61 e0       	ldi	r22, 0x01	; 1
    1920:	83 e0       	ldi	r24, 0x03	; 3
    1922:	0e 94 7c 08 	call	0x10f8	; 0x10f8 <DIO_vSetPinDir>
    1926:	40 e0       	ldi	r20, 0x00	; 0
    1928:	60 e0       	ldi	r22, 0x00	; 0
    192a:	83 e0       	ldi	r24, 0x03	; 3
    192c:	0c 94 7c 08 	jmp	0x10f8	; 0x10f8 <DIO_vSetPinDir>

00001930 <UART_vSendCharSync>:
    1930:	5d 9b       	sbis	0x0b, 5	; 11
    1932:	fe cf       	rjmp	.-4      	; 0x1930 <UART_vSendCharSync>
    1934:	8c b9       	out	0x0c, r24	; 12
    1936:	08 95       	ret

00001938 <UART_vSendStringSync>:
    1938:	0f 93       	push	r16
    193a:	1f 93       	push	r17
    193c:	cf 93       	push	r28
    193e:	8c 01       	movw	r16, r24
    1940:	c0 e0       	ldi	r28, 0x00	; 0
    1942:	f8 01       	movw	r30, r16
    1944:	ec 0f       	add	r30, r28
    1946:	f1 1d       	adc	r31, r1
    1948:	80 81       	ld	r24, Z
    194a:	88 23       	and	r24, r24
    194c:	29 f0       	breq	.+10     	; 0x1958 <UART_vSendStringSync+0x20>
    194e:	90 e0       	ldi	r25, 0x00	; 0
    1950:	0e 94 98 0c 	call	0x1930	; 0x1930 <UART_vSendCharSync>
    1954:	cf 5f       	subi	r28, 0xFF	; 255
    1956:	f5 cf       	rjmp	.-22     	; 0x1942 <UART_vSendStringSync+0xa>
    1958:	80 e0       	ldi	r24, 0x00	; 0
    195a:	90 e0       	ldi	r25, 0x00	; 0
    195c:	cf 91       	pop	r28
    195e:	1f 91       	pop	r17
    1960:	0f 91       	pop	r16
    1962:	0c 94 98 0c 	jmp	0x1930	; 0x1930 <UART_vSendCharSync>

00001966 <UART_vSetCallBackRX>:
    1966:	90 93 25 01 	sts	0x0125, r25	; 0x800125 <G_RX_COMPLETE_PTR_Iu16_Ov+0x1>
    196a:	80 93 24 01 	sts	0x0124, r24	; 0x800124 <G_RX_COMPLETE_PTR_Iu16_Ov>
    196e:	08 95       	ret

00001970 <__vector_13>:
    1970:	1f 92       	push	r1
    1972:	0f 92       	push	r0
    1974:	0f b6       	in	r0, 0x3f	; 63
    1976:	0f 92       	push	r0
    1978:	11 24       	eor	r1, r1
    197a:	2f 93       	push	r18
    197c:	3f 93       	push	r19
    197e:	4f 93       	push	r20
    1980:	5f 93       	push	r21
    1982:	6f 93       	push	r22
    1984:	7f 93       	push	r23
    1986:	8f 93       	push	r24
    1988:	9f 93       	push	r25
    198a:	af 93       	push	r26
    198c:	bf 93       	push	r27
    198e:	ef 93       	push	r30
    1990:	ff 93       	push	r31
    1992:	e0 91 24 01 	lds	r30, 0x0124	; 0x800124 <G_RX_COMPLETE_PTR_Iu16_Ov>
    1996:	f0 91 25 01 	lds	r31, 0x0125	; 0x800125 <G_RX_COMPLETE_PTR_Iu16_Ov+0x1>
    199a:	30 97       	sbiw	r30, 0x00	; 0
    199c:	19 f0       	breq	.+6      	; 0x19a4 <__vector_13+0x34>
    199e:	8c b1       	in	r24, 0x0c	; 12
    19a0:	90 e0       	ldi	r25, 0x00	; 0
    19a2:	09 95       	icall
    19a4:	ff 91       	pop	r31
    19a6:	ef 91       	pop	r30
    19a8:	bf 91       	pop	r27
    19aa:	af 91       	pop	r26
    19ac:	9f 91       	pop	r25
    19ae:	8f 91       	pop	r24
    19b0:	7f 91       	pop	r23
    19b2:	6f 91       	pop	r22
    19b4:	5f 91       	pop	r21
    19b6:	4f 91       	pop	r20
    19b8:	3f 91       	pop	r19
    19ba:	2f 91       	pop	r18
    19bc:	0f 90       	pop	r0
    19be:	0f be       	out	0x3f, r0	; 63
    19c0:	0f 90       	pop	r0
    19c2:	1f 90       	pop	r1
    19c4:	18 95       	reti

000019c6 <__vector_14>:
    19c6:	1f 92       	push	r1
    19c8:	0f 92       	push	r0
    19ca:	0f b6       	in	r0, 0x3f	; 63
    19cc:	0f 92       	push	r0
    19ce:	11 24       	eor	r1, r1
    19d0:	2f 93       	push	r18
    19d2:	3f 93       	push	r19
    19d4:	4f 93       	push	r20
    19d6:	5f 93       	push	r21
    19d8:	6f 93       	push	r22
    19da:	7f 93       	push	r23
    19dc:	8f 93       	push	r24
    19de:	9f 93       	push	r25
    19e0:	af 93       	push	r26
    19e2:	bf 93       	push	r27
    19e4:	ef 93       	push	r30
    19e6:	ff 93       	push	r31
    19e8:	e0 91 20 01 	lds	r30, 0x0120	; 0x800120 <G_UDRE_PTR_Iv_Ov>
    19ec:	f0 91 21 01 	lds	r31, 0x0121	; 0x800121 <G_UDRE_PTR_Iv_Ov+0x1>
    19f0:	30 97       	sbiw	r30, 0x00	; 0
    19f2:	09 f0       	breq	.+2      	; 0x19f6 <__vector_14+0x30>
    19f4:	09 95       	icall
    19f6:	ff 91       	pop	r31
    19f8:	ef 91       	pop	r30
    19fa:	bf 91       	pop	r27
    19fc:	af 91       	pop	r26
    19fe:	9f 91       	pop	r25
    1a00:	8f 91       	pop	r24
    1a02:	7f 91       	pop	r23
    1a04:	6f 91       	pop	r22
    1a06:	5f 91       	pop	r21
    1a08:	4f 91       	pop	r20
    1a0a:	3f 91       	pop	r19
    1a0c:	2f 91       	pop	r18
    1a0e:	0f 90       	pop	r0
    1a10:	0f be       	out	0x3f, r0	; 63
    1a12:	0f 90       	pop	r0
    1a14:	1f 90       	pop	r1
    1a16:	18 95       	reti

00001a18 <__vector_15>:
    1a18:	1f 92       	push	r1
    1a1a:	0f 92       	push	r0
    1a1c:	0f b6       	in	r0, 0x3f	; 63
    1a1e:	0f 92       	push	r0
    1a20:	11 24       	eor	r1, r1
    1a22:	2f 93       	push	r18
    1a24:	3f 93       	push	r19
    1a26:	4f 93       	push	r20
    1a28:	5f 93       	push	r21
    1a2a:	6f 93       	push	r22
    1a2c:	7f 93       	push	r23
    1a2e:	8f 93       	push	r24
    1a30:	9f 93       	push	r25
    1a32:	af 93       	push	r26
    1a34:	bf 93       	push	r27
    1a36:	ef 93       	push	r30
    1a38:	ff 93       	push	r31
    1a3a:	e0 91 22 01 	lds	r30, 0x0122	; 0x800122 <G_TX_COMPLETE_PTR_Iv_Ov>
    1a3e:	f0 91 23 01 	lds	r31, 0x0123	; 0x800123 <G_TX_COMPLETE_PTR_Iv_Ov+0x1>
    1a42:	30 97       	sbiw	r30, 0x00	; 0
    1a44:	09 f0       	breq	.+2      	; 0x1a48 <__vector_15+0x30>
    1a46:	09 95       	icall
    1a48:	ff 91       	pop	r31
    1a4a:	ef 91       	pop	r30
    1a4c:	bf 91       	pop	r27
    1a4e:	af 91       	pop	r26
    1a50:	9f 91       	pop	r25
    1a52:	8f 91       	pop	r24
    1a54:	7f 91       	pop	r23
    1a56:	6f 91       	pop	r22
    1a58:	5f 91       	pop	r21
    1a5a:	4f 91       	pop	r20
    1a5c:	3f 91       	pop	r19
    1a5e:	2f 91       	pop	r18
    1a60:	0f 90       	pop	r0
    1a62:	0f be       	out	0x3f, r0	; 63
    1a64:	0f 90       	pop	r0
    1a66:	1f 90       	pop	r1
    1a68:	18 95       	reti

00001a6a <__subsf3>:
    1a6a:	50 58       	subi	r21, 0x80	; 128

00001a6c <__addsf3>:
    1a6c:	bb 27       	eor	r27, r27
    1a6e:	aa 27       	eor	r26, r26
    1a70:	0e 94 4d 0d 	call	0x1a9a	; 0x1a9a <__addsf3x>
    1a74:	0c 94 d7 0e 	jmp	0x1dae	; 0x1dae <__fp_round>
    1a78:	0e 94 c9 0e 	call	0x1d92	; 0x1d92 <__fp_pscA>
    1a7c:	38 f0       	brcs	.+14     	; 0x1a8c <__addsf3+0x20>
    1a7e:	0e 94 d0 0e 	call	0x1da0	; 0x1da0 <__fp_pscB>
    1a82:	20 f0       	brcs	.+8      	; 0x1a8c <__addsf3+0x20>
    1a84:	39 f4       	brne	.+14     	; 0x1a94 <__addsf3+0x28>
    1a86:	9f 3f       	cpi	r25, 0xFF	; 255
    1a88:	19 f4       	brne	.+6      	; 0x1a90 <__addsf3+0x24>
    1a8a:	26 f4       	brtc	.+8      	; 0x1a94 <__addsf3+0x28>
    1a8c:	0c 94 c6 0e 	jmp	0x1d8c	; 0x1d8c <__fp_nan>
    1a90:	0e f4       	brtc	.+2      	; 0x1a94 <__addsf3+0x28>
    1a92:	e0 95       	com	r30
    1a94:	e7 fb       	bst	r30, 7
    1a96:	0c 94 97 0e 	jmp	0x1d2e	; 0x1d2e <__fp_inf>

00001a9a <__addsf3x>:
    1a9a:	e9 2f       	mov	r30, r25
    1a9c:	0e 94 e8 0e 	call	0x1dd0	; 0x1dd0 <__fp_split3>
    1aa0:	58 f3       	brcs	.-42     	; 0x1a78 <__addsf3+0xc>
    1aa2:	ba 17       	cp	r27, r26
    1aa4:	62 07       	cpc	r22, r18
    1aa6:	73 07       	cpc	r23, r19
    1aa8:	84 07       	cpc	r24, r20
    1aaa:	95 07       	cpc	r25, r21
    1aac:	20 f0       	brcs	.+8      	; 0x1ab6 <__addsf3x+0x1c>
    1aae:	79 f4       	brne	.+30     	; 0x1ace <__addsf3x+0x34>
    1ab0:	a6 f5       	brtc	.+104    	; 0x1b1a <__addsf3x+0x80>
    1ab2:	0c 94 22 0f 	jmp	0x1e44	; 0x1e44 <__fp_zero>
    1ab6:	0e f4       	brtc	.+2      	; 0x1aba <__addsf3x+0x20>
    1ab8:	e0 95       	com	r30
    1aba:	0b 2e       	mov	r0, r27
    1abc:	ba 2f       	mov	r27, r26
    1abe:	a0 2d       	mov	r26, r0
    1ac0:	0b 01       	movw	r0, r22
    1ac2:	b9 01       	movw	r22, r18
    1ac4:	90 01       	movw	r18, r0
    1ac6:	0c 01       	movw	r0, r24
    1ac8:	ca 01       	movw	r24, r20
    1aca:	a0 01       	movw	r20, r0
    1acc:	11 24       	eor	r1, r1
    1ace:	ff 27       	eor	r31, r31
    1ad0:	59 1b       	sub	r21, r25
    1ad2:	99 f0       	breq	.+38     	; 0x1afa <__addsf3x+0x60>
    1ad4:	59 3f       	cpi	r21, 0xF9	; 249
    1ad6:	50 f4       	brcc	.+20     	; 0x1aec <__addsf3x+0x52>
    1ad8:	50 3e       	cpi	r21, 0xE0	; 224
    1ada:	68 f1       	brcs	.+90     	; 0x1b36 <__addsf3x+0x9c>
    1adc:	1a 16       	cp	r1, r26
    1ade:	f0 40       	sbci	r31, 0x00	; 0
    1ae0:	a2 2f       	mov	r26, r18
    1ae2:	23 2f       	mov	r18, r19
    1ae4:	34 2f       	mov	r19, r20
    1ae6:	44 27       	eor	r20, r20
    1ae8:	58 5f       	subi	r21, 0xF8	; 248
    1aea:	f3 cf       	rjmp	.-26     	; 0x1ad2 <__addsf3x+0x38>
    1aec:	46 95       	lsr	r20
    1aee:	37 95       	ror	r19
    1af0:	27 95       	ror	r18
    1af2:	a7 95       	ror	r26
    1af4:	f0 40       	sbci	r31, 0x00	; 0
    1af6:	53 95       	inc	r21
    1af8:	c9 f7       	brne	.-14     	; 0x1aec <__addsf3x+0x52>
    1afa:	7e f4       	brtc	.+30     	; 0x1b1a <__addsf3x+0x80>
    1afc:	1f 16       	cp	r1, r31
    1afe:	ba 0b       	sbc	r27, r26
    1b00:	62 0b       	sbc	r22, r18
    1b02:	73 0b       	sbc	r23, r19
    1b04:	84 0b       	sbc	r24, r20
    1b06:	ba f0       	brmi	.+46     	; 0x1b36 <__addsf3x+0x9c>
    1b08:	91 50       	subi	r25, 0x01	; 1
    1b0a:	a1 f0       	breq	.+40     	; 0x1b34 <__addsf3x+0x9a>
    1b0c:	ff 0f       	add	r31, r31
    1b0e:	bb 1f       	adc	r27, r27
    1b10:	66 1f       	adc	r22, r22
    1b12:	77 1f       	adc	r23, r23
    1b14:	88 1f       	adc	r24, r24
    1b16:	c2 f7       	brpl	.-16     	; 0x1b08 <__addsf3x+0x6e>
    1b18:	0e c0       	rjmp	.+28     	; 0x1b36 <__addsf3x+0x9c>
    1b1a:	ba 0f       	add	r27, r26
    1b1c:	62 1f       	adc	r22, r18
    1b1e:	73 1f       	adc	r23, r19
    1b20:	84 1f       	adc	r24, r20
    1b22:	48 f4       	brcc	.+18     	; 0x1b36 <__addsf3x+0x9c>
    1b24:	87 95       	ror	r24
    1b26:	77 95       	ror	r23
    1b28:	67 95       	ror	r22
    1b2a:	b7 95       	ror	r27
    1b2c:	f7 95       	ror	r31
    1b2e:	9e 3f       	cpi	r25, 0xFE	; 254
    1b30:	08 f0       	brcs	.+2      	; 0x1b34 <__addsf3x+0x9a>
    1b32:	b0 cf       	rjmp	.-160    	; 0x1a94 <__addsf3+0x28>
    1b34:	93 95       	inc	r25
    1b36:	88 0f       	add	r24, r24
    1b38:	08 f0       	brcs	.+2      	; 0x1b3c <__addsf3x+0xa2>
    1b3a:	99 27       	eor	r25, r25
    1b3c:	ee 0f       	add	r30, r30
    1b3e:	97 95       	ror	r25
    1b40:	87 95       	ror	r24
    1b42:	08 95       	ret

00001b44 <ceil>:
    1b44:	0e 94 0a 0f 	call	0x1e14	; 0x1e14 <__fp_trunc>
    1b48:	90 f0       	brcs	.+36     	; 0x1b6e <ceil+0x2a>
    1b4a:	9f 37       	cpi	r25, 0x7F	; 127
    1b4c:	48 f4       	brcc	.+18     	; 0x1b60 <ceil+0x1c>
    1b4e:	91 11       	cpse	r25, r1
    1b50:	16 f4       	brtc	.+4      	; 0x1b56 <ceil+0x12>
    1b52:	0c 94 23 0f 	jmp	0x1e46	; 0x1e46 <__fp_szero>
    1b56:	60 e0       	ldi	r22, 0x00	; 0
    1b58:	70 e0       	ldi	r23, 0x00	; 0
    1b5a:	80 e8       	ldi	r24, 0x80	; 128
    1b5c:	9f e3       	ldi	r25, 0x3F	; 63
    1b5e:	08 95       	ret
    1b60:	26 f0       	brts	.+8      	; 0x1b6a <ceil+0x26>
    1b62:	1b 16       	cp	r1, r27
    1b64:	61 1d       	adc	r22, r1
    1b66:	71 1d       	adc	r23, r1
    1b68:	81 1d       	adc	r24, r1
    1b6a:	0c 94 9d 0e 	jmp	0x1d3a	; 0x1d3a <__fp_mintl>
    1b6e:	0c 94 b8 0e 	jmp	0x1d70	; 0x1d70 <__fp_mpack>

00001b72 <__divsf3>:
    1b72:	0e 94 cd 0d 	call	0x1b9a	; 0x1b9a <__divsf3x>
    1b76:	0c 94 d7 0e 	jmp	0x1dae	; 0x1dae <__fp_round>
    1b7a:	0e 94 d0 0e 	call	0x1da0	; 0x1da0 <__fp_pscB>
    1b7e:	58 f0       	brcs	.+22     	; 0x1b96 <__divsf3+0x24>
    1b80:	0e 94 c9 0e 	call	0x1d92	; 0x1d92 <__fp_pscA>
    1b84:	40 f0       	brcs	.+16     	; 0x1b96 <__divsf3+0x24>
    1b86:	29 f4       	brne	.+10     	; 0x1b92 <__divsf3+0x20>
    1b88:	5f 3f       	cpi	r21, 0xFF	; 255
    1b8a:	29 f0       	breq	.+10     	; 0x1b96 <__divsf3+0x24>
    1b8c:	0c 94 97 0e 	jmp	0x1d2e	; 0x1d2e <__fp_inf>
    1b90:	51 11       	cpse	r21, r1
    1b92:	0c 94 23 0f 	jmp	0x1e46	; 0x1e46 <__fp_szero>
    1b96:	0c 94 c6 0e 	jmp	0x1d8c	; 0x1d8c <__fp_nan>

00001b9a <__divsf3x>:
    1b9a:	0e 94 e8 0e 	call	0x1dd0	; 0x1dd0 <__fp_split3>
    1b9e:	68 f3       	brcs	.-38     	; 0x1b7a <__divsf3+0x8>

00001ba0 <__divsf3_pse>:
    1ba0:	99 23       	and	r25, r25
    1ba2:	b1 f3       	breq	.-20     	; 0x1b90 <__divsf3+0x1e>
    1ba4:	55 23       	and	r21, r21
    1ba6:	91 f3       	breq	.-28     	; 0x1b8c <__divsf3+0x1a>
    1ba8:	95 1b       	sub	r25, r21
    1baa:	55 0b       	sbc	r21, r21
    1bac:	bb 27       	eor	r27, r27
    1bae:	aa 27       	eor	r26, r26
    1bb0:	62 17       	cp	r22, r18
    1bb2:	73 07       	cpc	r23, r19
    1bb4:	84 07       	cpc	r24, r20
    1bb6:	38 f0       	brcs	.+14     	; 0x1bc6 <__divsf3_pse+0x26>
    1bb8:	9f 5f       	subi	r25, 0xFF	; 255
    1bba:	5f 4f       	sbci	r21, 0xFF	; 255
    1bbc:	22 0f       	add	r18, r18
    1bbe:	33 1f       	adc	r19, r19
    1bc0:	44 1f       	adc	r20, r20
    1bc2:	aa 1f       	adc	r26, r26
    1bc4:	a9 f3       	breq	.-22     	; 0x1bb0 <__divsf3_pse+0x10>
    1bc6:	35 d0       	rcall	.+106    	; 0x1c32 <__divsf3_pse+0x92>
    1bc8:	0e 2e       	mov	r0, r30
    1bca:	3a f0       	brmi	.+14     	; 0x1bda <__divsf3_pse+0x3a>
    1bcc:	e0 e8       	ldi	r30, 0x80	; 128
    1bce:	32 d0       	rcall	.+100    	; 0x1c34 <__divsf3_pse+0x94>
    1bd0:	91 50       	subi	r25, 0x01	; 1
    1bd2:	50 40       	sbci	r21, 0x00	; 0
    1bd4:	e6 95       	lsr	r30
    1bd6:	00 1c       	adc	r0, r0
    1bd8:	ca f7       	brpl	.-14     	; 0x1bcc <__divsf3_pse+0x2c>
    1bda:	2b d0       	rcall	.+86     	; 0x1c32 <__divsf3_pse+0x92>
    1bdc:	fe 2f       	mov	r31, r30
    1bde:	29 d0       	rcall	.+82     	; 0x1c32 <__divsf3_pse+0x92>
    1be0:	66 0f       	add	r22, r22
    1be2:	77 1f       	adc	r23, r23
    1be4:	88 1f       	adc	r24, r24
    1be6:	bb 1f       	adc	r27, r27
    1be8:	26 17       	cp	r18, r22
    1bea:	37 07       	cpc	r19, r23
    1bec:	48 07       	cpc	r20, r24
    1bee:	ab 07       	cpc	r26, r27
    1bf0:	b0 e8       	ldi	r27, 0x80	; 128
    1bf2:	09 f0       	breq	.+2      	; 0x1bf6 <__divsf3_pse+0x56>
    1bf4:	bb 0b       	sbc	r27, r27
    1bf6:	80 2d       	mov	r24, r0
    1bf8:	bf 01       	movw	r22, r30
    1bfa:	ff 27       	eor	r31, r31
    1bfc:	93 58       	subi	r25, 0x83	; 131
    1bfe:	5f 4f       	sbci	r21, 0xFF	; 255
    1c00:	3a f0       	brmi	.+14     	; 0x1c10 <__divsf3_pse+0x70>
    1c02:	9e 3f       	cpi	r25, 0xFE	; 254
    1c04:	51 05       	cpc	r21, r1
    1c06:	78 f0       	brcs	.+30     	; 0x1c26 <__divsf3_pse+0x86>
    1c08:	0c 94 97 0e 	jmp	0x1d2e	; 0x1d2e <__fp_inf>
    1c0c:	0c 94 23 0f 	jmp	0x1e46	; 0x1e46 <__fp_szero>
    1c10:	5f 3f       	cpi	r21, 0xFF	; 255
    1c12:	e4 f3       	brlt	.-8      	; 0x1c0c <__divsf3_pse+0x6c>
    1c14:	98 3e       	cpi	r25, 0xE8	; 232
    1c16:	d4 f3       	brlt	.-12     	; 0x1c0c <__divsf3_pse+0x6c>
    1c18:	86 95       	lsr	r24
    1c1a:	77 95       	ror	r23
    1c1c:	67 95       	ror	r22
    1c1e:	b7 95       	ror	r27
    1c20:	f7 95       	ror	r31
    1c22:	9f 5f       	subi	r25, 0xFF	; 255
    1c24:	c9 f7       	brne	.-14     	; 0x1c18 <__divsf3_pse+0x78>
    1c26:	88 0f       	add	r24, r24
    1c28:	91 1d       	adc	r25, r1
    1c2a:	96 95       	lsr	r25
    1c2c:	87 95       	ror	r24
    1c2e:	97 f9       	bld	r25, 7
    1c30:	08 95       	ret
    1c32:	e1 e0       	ldi	r30, 0x01	; 1
    1c34:	66 0f       	add	r22, r22
    1c36:	77 1f       	adc	r23, r23
    1c38:	88 1f       	adc	r24, r24
    1c3a:	bb 1f       	adc	r27, r27
    1c3c:	62 17       	cp	r22, r18
    1c3e:	73 07       	cpc	r23, r19
    1c40:	84 07       	cpc	r24, r20
    1c42:	ba 07       	cpc	r27, r26
    1c44:	20 f0       	brcs	.+8      	; 0x1c4e <__divsf3_pse+0xae>
    1c46:	62 1b       	sub	r22, r18
    1c48:	73 0b       	sbc	r23, r19
    1c4a:	84 0b       	sbc	r24, r20
    1c4c:	ba 0b       	sbc	r27, r26
    1c4e:	ee 1f       	adc	r30, r30
    1c50:	88 f7       	brcc	.-30     	; 0x1c34 <__divsf3_pse+0x94>
    1c52:	e0 95       	com	r30
    1c54:	08 95       	ret

00001c56 <__fixunssfsi>:
    1c56:	0e 94 f0 0e 	call	0x1de0	; 0x1de0 <__fp_splitA>
    1c5a:	88 f0       	brcs	.+34     	; 0x1c7e <__fixunssfsi+0x28>
    1c5c:	9f 57       	subi	r25, 0x7F	; 127
    1c5e:	98 f0       	brcs	.+38     	; 0x1c86 <__fixunssfsi+0x30>
    1c60:	b9 2f       	mov	r27, r25
    1c62:	99 27       	eor	r25, r25
    1c64:	b7 51       	subi	r27, 0x17	; 23
    1c66:	b0 f0       	brcs	.+44     	; 0x1c94 <__fixunssfsi+0x3e>
    1c68:	e1 f0       	breq	.+56     	; 0x1ca2 <__fixunssfsi+0x4c>
    1c6a:	66 0f       	add	r22, r22
    1c6c:	77 1f       	adc	r23, r23
    1c6e:	88 1f       	adc	r24, r24
    1c70:	99 1f       	adc	r25, r25
    1c72:	1a f0       	brmi	.+6      	; 0x1c7a <__fixunssfsi+0x24>
    1c74:	ba 95       	dec	r27
    1c76:	c9 f7       	brne	.-14     	; 0x1c6a <__fixunssfsi+0x14>
    1c78:	14 c0       	rjmp	.+40     	; 0x1ca2 <__fixunssfsi+0x4c>
    1c7a:	b1 30       	cpi	r27, 0x01	; 1
    1c7c:	91 f0       	breq	.+36     	; 0x1ca2 <__fixunssfsi+0x4c>
    1c7e:	0e 94 22 0f 	call	0x1e44	; 0x1e44 <__fp_zero>
    1c82:	b1 e0       	ldi	r27, 0x01	; 1
    1c84:	08 95       	ret
    1c86:	0c 94 22 0f 	jmp	0x1e44	; 0x1e44 <__fp_zero>
    1c8a:	67 2f       	mov	r22, r23
    1c8c:	78 2f       	mov	r23, r24
    1c8e:	88 27       	eor	r24, r24
    1c90:	b8 5f       	subi	r27, 0xF8	; 248
    1c92:	39 f0       	breq	.+14     	; 0x1ca2 <__fixunssfsi+0x4c>
    1c94:	b9 3f       	cpi	r27, 0xF9	; 249
    1c96:	cc f3       	brlt	.-14     	; 0x1c8a <__fixunssfsi+0x34>
    1c98:	86 95       	lsr	r24
    1c9a:	77 95       	ror	r23
    1c9c:	67 95       	ror	r22
    1c9e:	b3 95       	inc	r27
    1ca0:	d9 f7       	brne	.-10     	; 0x1c98 <__fixunssfsi+0x42>
    1ca2:	3e f4       	brtc	.+14     	; 0x1cb2 <__fixunssfsi+0x5c>
    1ca4:	90 95       	com	r25
    1ca6:	80 95       	com	r24
    1ca8:	70 95       	com	r23
    1caa:	61 95       	neg	r22
    1cac:	7f 4f       	sbci	r23, 0xFF	; 255
    1cae:	8f 4f       	sbci	r24, 0xFF	; 255
    1cb0:	9f 4f       	sbci	r25, 0xFF	; 255
    1cb2:	08 95       	ret

00001cb4 <__floatunsisf>:
    1cb4:	e8 94       	clt
    1cb6:	09 c0       	rjmp	.+18     	; 0x1cca <__floatsisf+0x12>

00001cb8 <__floatsisf>:
    1cb8:	97 fb       	bst	r25, 7
    1cba:	3e f4       	brtc	.+14     	; 0x1cca <__floatsisf+0x12>
    1cbc:	90 95       	com	r25
    1cbe:	80 95       	com	r24
    1cc0:	70 95       	com	r23
    1cc2:	61 95       	neg	r22
    1cc4:	7f 4f       	sbci	r23, 0xFF	; 255
    1cc6:	8f 4f       	sbci	r24, 0xFF	; 255
    1cc8:	9f 4f       	sbci	r25, 0xFF	; 255
    1cca:	99 23       	and	r25, r25
    1ccc:	a9 f0       	breq	.+42     	; 0x1cf8 <__floatsisf+0x40>
    1cce:	f9 2f       	mov	r31, r25
    1cd0:	96 e9       	ldi	r25, 0x96	; 150
    1cd2:	bb 27       	eor	r27, r27
    1cd4:	93 95       	inc	r25
    1cd6:	f6 95       	lsr	r31
    1cd8:	87 95       	ror	r24
    1cda:	77 95       	ror	r23
    1cdc:	67 95       	ror	r22
    1cde:	b7 95       	ror	r27
    1ce0:	f1 11       	cpse	r31, r1
    1ce2:	f8 cf       	rjmp	.-16     	; 0x1cd4 <__floatsisf+0x1c>
    1ce4:	fa f4       	brpl	.+62     	; 0x1d24 <__floatsisf+0x6c>
    1ce6:	bb 0f       	add	r27, r27
    1ce8:	11 f4       	brne	.+4      	; 0x1cee <__floatsisf+0x36>
    1cea:	60 ff       	sbrs	r22, 0
    1cec:	1b c0       	rjmp	.+54     	; 0x1d24 <__floatsisf+0x6c>
    1cee:	6f 5f       	subi	r22, 0xFF	; 255
    1cf0:	7f 4f       	sbci	r23, 0xFF	; 255
    1cf2:	8f 4f       	sbci	r24, 0xFF	; 255
    1cf4:	9f 4f       	sbci	r25, 0xFF	; 255
    1cf6:	16 c0       	rjmp	.+44     	; 0x1d24 <__floatsisf+0x6c>
    1cf8:	88 23       	and	r24, r24
    1cfa:	11 f0       	breq	.+4      	; 0x1d00 <__floatsisf+0x48>
    1cfc:	96 e9       	ldi	r25, 0x96	; 150
    1cfe:	11 c0       	rjmp	.+34     	; 0x1d22 <__floatsisf+0x6a>
    1d00:	77 23       	and	r23, r23
    1d02:	21 f0       	breq	.+8      	; 0x1d0c <__floatsisf+0x54>
    1d04:	9e e8       	ldi	r25, 0x8E	; 142
    1d06:	87 2f       	mov	r24, r23
    1d08:	76 2f       	mov	r23, r22
    1d0a:	05 c0       	rjmp	.+10     	; 0x1d16 <__floatsisf+0x5e>
    1d0c:	66 23       	and	r22, r22
    1d0e:	71 f0       	breq	.+28     	; 0x1d2c <__floatsisf+0x74>
    1d10:	96 e8       	ldi	r25, 0x86	; 134
    1d12:	86 2f       	mov	r24, r22
    1d14:	70 e0       	ldi	r23, 0x00	; 0
    1d16:	60 e0       	ldi	r22, 0x00	; 0
    1d18:	2a f0       	brmi	.+10     	; 0x1d24 <__floatsisf+0x6c>
    1d1a:	9a 95       	dec	r25
    1d1c:	66 0f       	add	r22, r22
    1d1e:	77 1f       	adc	r23, r23
    1d20:	88 1f       	adc	r24, r24
    1d22:	da f7       	brpl	.-10     	; 0x1d1a <__floatsisf+0x62>
    1d24:	88 0f       	add	r24, r24
    1d26:	96 95       	lsr	r25
    1d28:	87 95       	ror	r24
    1d2a:	97 f9       	bld	r25, 7
    1d2c:	08 95       	ret

00001d2e <__fp_inf>:
    1d2e:	97 f9       	bld	r25, 7
    1d30:	9f 67       	ori	r25, 0x7F	; 127
    1d32:	80 e8       	ldi	r24, 0x80	; 128
    1d34:	70 e0       	ldi	r23, 0x00	; 0
    1d36:	60 e0       	ldi	r22, 0x00	; 0
    1d38:	08 95       	ret

00001d3a <__fp_mintl>:
    1d3a:	88 23       	and	r24, r24
    1d3c:	71 f4       	brne	.+28     	; 0x1d5a <__fp_mintl+0x20>
    1d3e:	77 23       	and	r23, r23
    1d40:	21 f0       	breq	.+8      	; 0x1d4a <__fp_mintl+0x10>
    1d42:	98 50       	subi	r25, 0x08	; 8
    1d44:	87 2b       	or	r24, r23
    1d46:	76 2f       	mov	r23, r22
    1d48:	07 c0       	rjmp	.+14     	; 0x1d58 <__fp_mintl+0x1e>
    1d4a:	66 23       	and	r22, r22
    1d4c:	11 f4       	brne	.+4      	; 0x1d52 <__fp_mintl+0x18>
    1d4e:	99 27       	eor	r25, r25
    1d50:	0d c0       	rjmp	.+26     	; 0x1d6c <__fp_mintl+0x32>
    1d52:	90 51       	subi	r25, 0x10	; 16
    1d54:	86 2b       	or	r24, r22
    1d56:	70 e0       	ldi	r23, 0x00	; 0
    1d58:	60 e0       	ldi	r22, 0x00	; 0
    1d5a:	2a f0       	brmi	.+10     	; 0x1d66 <__fp_mintl+0x2c>
    1d5c:	9a 95       	dec	r25
    1d5e:	66 0f       	add	r22, r22
    1d60:	77 1f       	adc	r23, r23
    1d62:	88 1f       	adc	r24, r24
    1d64:	da f7       	brpl	.-10     	; 0x1d5c <__fp_mintl+0x22>
    1d66:	88 0f       	add	r24, r24
    1d68:	96 95       	lsr	r25
    1d6a:	87 95       	ror	r24
    1d6c:	97 f9       	bld	r25, 7
    1d6e:	08 95       	ret

00001d70 <__fp_mpack>:
    1d70:	9f 3f       	cpi	r25, 0xFF	; 255
    1d72:	31 f0       	breq	.+12     	; 0x1d80 <__fp_mpack_finite+0xc>

00001d74 <__fp_mpack_finite>:
    1d74:	91 50       	subi	r25, 0x01	; 1
    1d76:	20 f4       	brcc	.+8      	; 0x1d80 <__fp_mpack_finite+0xc>
    1d78:	87 95       	ror	r24
    1d7a:	77 95       	ror	r23
    1d7c:	67 95       	ror	r22
    1d7e:	b7 95       	ror	r27
    1d80:	88 0f       	add	r24, r24
    1d82:	91 1d       	adc	r25, r1
    1d84:	96 95       	lsr	r25
    1d86:	87 95       	ror	r24
    1d88:	97 f9       	bld	r25, 7
    1d8a:	08 95       	ret

00001d8c <__fp_nan>:
    1d8c:	9f ef       	ldi	r25, 0xFF	; 255
    1d8e:	80 ec       	ldi	r24, 0xC0	; 192
    1d90:	08 95       	ret

00001d92 <__fp_pscA>:
    1d92:	00 24       	eor	r0, r0
    1d94:	0a 94       	dec	r0
    1d96:	16 16       	cp	r1, r22
    1d98:	17 06       	cpc	r1, r23
    1d9a:	18 06       	cpc	r1, r24
    1d9c:	09 06       	cpc	r0, r25
    1d9e:	08 95       	ret

00001da0 <__fp_pscB>:
    1da0:	00 24       	eor	r0, r0
    1da2:	0a 94       	dec	r0
    1da4:	12 16       	cp	r1, r18
    1da6:	13 06       	cpc	r1, r19
    1da8:	14 06       	cpc	r1, r20
    1daa:	05 06       	cpc	r0, r21
    1dac:	08 95       	ret

00001dae <__fp_round>:
    1dae:	09 2e       	mov	r0, r25
    1db0:	03 94       	inc	r0
    1db2:	00 0c       	add	r0, r0
    1db4:	11 f4       	brne	.+4      	; 0x1dba <__fp_round+0xc>
    1db6:	88 23       	and	r24, r24
    1db8:	52 f0       	brmi	.+20     	; 0x1dce <__fp_round+0x20>
    1dba:	bb 0f       	add	r27, r27
    1dbc:	40 f4       	brcc	.+16     	; 0x1dce <__fp_round+0x20>
    1dbe:	bf 2b       	or	r27, r31
    1dc0:	11 f4       	brne	.+4      	; 0x1dc6 <__fp_round+0x18>
    1dc2:	60 ff       	sbrs	r22, 0
    1dc4:	04 c0       	rjmp	.+8      	; 0x1dce <__fp_round+0x20>
    1dc6:	6f 5f       	subi	r22, 0xFF	; 255
    1dc8:	7f 4f       	sbci	r23, 0xFF	; 255
    1dca:	8f 4f       	sbci	r24, 0xFF	; 255
    1dcc:	9f 4f       	sbci	r25, 0xFF	; 255
    1dce:	08 95       	ret

00001dd0 <__fp_split3>:
    1dd0:	57 fd       	sbrc	r21, 7
    1dd2:	90 58       	subi	r25, 0x80	; 128
    1dd4:	44 0f       	add	r20, r20
    1dd6:	55 1f       	adc	r21, r21
    1dd8:	59 f0       	breq	.+22     	; 0x1df0 <__fp_splitA+0x10>
    1dda:	5f 3f       	cpi	r21, 0xFF	; 255
    1ddc:	71 f0       	breq	.+28     	; 0x1dfa <__fp_splitA+0x1a>
    1dde:	47 95       	ror	r20

00001de0 <__fp_splitA>:
    1de0:	88 0f       	add	r24, r24
    1de2:	97 fb       	bst	r25, 7
    1de4:	99 1f       	adc	r25, r25
    1de6:	61 f0       	breq	.+24     	; 0x1e00 <__fp_splitA+0x20>
    1de8:	9f 3f       	cpi	r25, 0xFF	; 255
    1dea:	79 f0       	breq	.+30     	; 0x1e0a <__fp_splitA+0x2a>
    1dec:	87 95       	ror	r24
    1dee:	08 95       	ret
    1df0:	12 16       	cp	r1, r18
    1df2:	13 06       	cpc	r1, r19
    1df4:	14 06       	cpc	r1, r20
    1df6:	55 1f       	adc	r21, r21
    1df8:	f2 cf       	rjmp	.-28     	; 0x1dde <__fp_split3+0xe>
    1dfa:	46 95       	lsr	r20
    1dfc:	f1 df       	rcall	.-30     	; 0x1de0 <__fp_splitA>
    1dfe:	08 c0       	rjmp	.+16     	; 0x1e10 <__fp_splitA+0x30>
    1e00:	16 16       	cp	r1, r22
    1e02:	17 06       	cpc	r1, r23
    1e04:	18 06       	cpc	r1, r24
    1e06:	99 1f       	adc	r25, r25
    1e08:	f1 cf       	rjmp	.-30     	; 0x1dec <__fp_splitA+0xc>
    1e0a:	86 95       	lsr	r24
    1e0c:	71 05       	cpc	r23, r1
    1e0e:	61 05       	cpc	r22, r1
    1e10:	08 94       	sec
    1e12:	08 95       	ret

00001e14 <__fp_trunc>:
    1e14:	0e 94 f0 0e 	call	0x1de0	; 0x1de0 <__fp_splitA>
    1e18:	a0 f0       	brcs	.+40     	; 0x1e42 <__fp_trunc+0x2e>
    1e1a:	be e7       	ldi	r27, 0x7E	; 126
    1e1c:	b9 17       	cp	r27, r25
    1e1e:	88 f4       	brcc	.+34     	; 0x1e42 <__fp_trunc+0x2e>
    1e20:	bb 27       	eor	r27, r27
    1e22:	9f 38       	cpi	r25, 0x8F	; 143
    1e24:	60 f4       	brcc	.+24     	; 0x1e3e <__fp_trunc+0x2a>
    1e26:	16 16       	cp	r1, r22
    1e28:	b1 1d       	adc	r27, r1
    1e2a:	67 2f       	mov	r22, r23
    1e2c:	78 2f       	mov	r23, r24
    1e2e:	88 27       	eor	r24, r24
    1e30:	98 5f       	subi	r25, 0xF8	; 248
    1e32:	f7 cf       	rjmp	.-18     	; 0x1e22 <__fp_trunc+0xe>
    1e34:	86 95       	lsr	r24
    1e36:	77 95       	ror	r23
    1e38:	67 95       	ror	r22
    1e3a:	b1 1d       	adc	r27, r1
    1e3c:	93 95       	inc	r25
    1e3e:	96 39       	cpi	r25, 0x96	; 150
    1e40:	c8 f3       	brcs	.-14     	; 0x1e34 <__fp_trunc+0x20>
    1e42:	08 95       	ret

00001e44 <__fp_zero>:
    1e44:	e8 94       	clt

00001e46 <__fp_szero>:
    1e46:	bb 27       	eor	r27, r27
    1e48:	66 27       	eor	r22, r22
    1e4a:	77 27       	eor	r23, r23
    1e4c:	cb 01       	movw	r24, r22
    1e4e:	97 f9       	bld	r25, 7
    1e50:	08 95       	ret

00001e52 <__udivmodsi4>:
    1e52:	a1 e2       	ldi	r26, 0x21	; 33
    1e54:	1a 2e       	mov	r1, r26
    1e56:	aa 1b       	sub	r26, r26
    1e58:	bb 1b       	sub	r27, r27
    1e5a:	fd 01       	movw	r30, r26
    1e5c:	0d c0       	rjmp	.+26     	; 0x1e78 <__udivmodsi4_ep>

00001e5e <__udivmodsi4_loop>:
    1e5e:	aa 1f       	adc	r26, r26
    1e60:	bb 1f       	adc	r27, r27
    1e62:	ee 1f       	adc	r30, r30
    1e64:	ff 1f       	adc	r31, r31
    1e66:	a2 17       	cp	r26, r18
    1e68:	b3 07       	cpc	r27, r19
    1e6a:	e4 07       	cpc	r30, r20
    1e6c:	f5 07       	cpc	r31, r21
    1e6e:	20 f0       	brcs	.+8      	; 0x1e78 <__udivmodsi4_ep>
    1e70:	a2 1b       	sub	r26, r18
    1e72:	b3 0b       	sbc	r27, r19
    1e74:	e4 0b       	sbc	r30, r20
    1e76:	f5 0b       	sbc	r31, r21

00001e78 <__udivmodsi4_ep>:
    1e78:	66 1f       	adc	r22, r22
    1e7a:	77 1f       	adc	r23, r23
    1e7c:	88 1f       	adc	r24, r24
    1e7e:	99 1f       	adc	r25, r25
    1e80:	1a 94       	dec	r1
    1e82:	69 f7       	brne	.-38     	; 0x1e5e <__udivmodsi4_loop>
    1e84:	60 95       	com	r22
    1e86:	70 95       	com	r23
    1e88:	80 95       	com	r24
    1e8a:	90 95       	com	r25
    1e8c:	9b 01       	movw	r18, r22
    1e8e:	ac 01       	movw	r20, r24
    1e90:	bd 01       	movw	r22, r26
    1e92:	cf 01       	movw	r24, r30
    1e94:	08 95       	ret

00001e96 <__umulhisi3>:
    1e96:	a2 9f       	mul	r26, r18
    1e98:	b0 01       	movw	r22, r0
    1e9a:	b3 9f       	mul	r27, r19
    1e9c:	c0 01       	movw	r24, r0
    1e9e:	a3 9f       	mul	r26, r19
    1ea0:	70 0d       	add	r23, r0
    1ea2:	81 1d       	adc	r24, r1
    1ea4:	11 24       	eor	r1, r1
    1ea6:	91 1d       	adc	r25, r1
    1ea8:	b2 9f       	mul	r27, r18
    1eaa:	70 0d       	add	r23, r0
    1eac:	81 1d       	adc	r24, r1
    1eae:	11 24       	eor	r1, r1
    1eb0:	91 1d       	adc	r25, r1
    1eb2:	08 95       	ret

00001eb4 <__muluhisi3>:
    1eb4:	0e 94 4b 0f 	call	0x1e96	; 0x1e96 <__umulhisi3>
    1eb8:	a5 9f       	mul	r26, r21
    1eba:	90 0d       	add	r25, r0
    1ebc:	b4 9f       	mul	r27, r20
    1ebe:	90 0d       	add	r25, r0
    1ec0:	a4 9f       	mul	r26, r20
    1ec2:	80 0d       	add	r24, r0
    1ec4:	91 1d       	adc	r25, r1
    1ec6:	11 24       	eor	r1, r1
    1ec8:	08 95       	ret

00001eca <__moddi3>:
    1eca:	68 94       	set
    1ecc:	01 c0       	rjmp	.+2      	; 0x1ed0 <__divdi3_moddi3>

00001ece <__divdi3>:
    1ece:	e8 94       	clt

00001ed0 <__divdi3_moddi3>:
    1ed0:	f9 2f       	mov	r31, r25
    1ed2:	f1 2b       	or	r31, r17
    1ed4:	12 f0       	brmi	.+4      	; 0x1eda <__divdi3_moddi3+0xa>
    1ed6:	0c 94 99 0f 	jmp	0x1f32	; 0x1f32 <__udivdi3_umoddi3>
    1eda:	a0 e0       	ldi	r26, 0x00	; 0
    1edc:	b0 e0       	ldi	r27, 0x00	; 0
    1ede:	e3 e7       	ldi	r30, 0x73	; 115
    1ee0:	ff e0       	ldi	r31, 0x0F	; 15
    1ee2:	0c 94 0b 10 	jmp	0x2016	; 0x2016 <__prologue_saves__+0xc>
    1ee6:	09 2e       	mov	r0, r25
    1ee8:	05 94       	asr	r0
    1eea:	22 f4       	brpl	.+8      	; 0x1ef4 <__divdi3_moddi3+0x24>
    1eec:	0e 94 f5 0f 	call	0x1fea	; 0x1fea <__negdi2>
    1ef0:	11 23       	and	r17, r17
    1ef2:	92 f4       	brpl	.+36     	; 0x1f18 <__divdi3_moddi3+0x48>
    1ef4:	f0 e8       	ldi	r31, 0x80	; 128
    1ef6:	0f 26       	eor	r0, r31
    1ef8:	ff ef       	ldi	r31, 0xFF	; 255
    1efa:	e0 94       	com	r14
    1efc:	f0 94       	com	r15
    1efe:	00 95       	com	r16
    1f00:	10 95       	com	r17
    1f02:	b0 94       	com	r11
    1f04:	c0 94       	com	r12
    1f06:	d0 94       	com	r13
    1f08:	a1 94       	neg	r10
    1f0a:	bf 0a       	sbc	r11, r31
    1f0c:	cf 0a       	sbc	r12, r31
    1f0e:	df 0a       	sbc	r13, r31
    1f10:	ef 0a       	sbc	r14, r31
    1f12:	ff 0a       	sbc	r15, r31
    1f14:	0f 0b       	sbc	r16, r31
    1f16:	1f 0b       	sbc	r17, r31
    1f18:	0e 94 a4 0f 	call	0x1f48	; 0x1f48 <__udivmod64>
    1f1c:	07 fc       	sbrc	r0, 7
    1f1e:	0e 94 f5 0f 	call	0x1fea	; 0x1fea <__negdi2>
    1f22:	cd b7       	in	r28, 0x3d	; 61
    1f24:	de b7       	in	r29, 0x3e	; 62
    1f26:	ec e0       	ldi	r30, 0x0C	; 12
    1f28:	0c 94 27 10 	jmp	0x204e	; 0x204e <__epilogue_restores__+0xc>

00001f2c <__umoddi3>:
    1f2c:	68 94       	set
    1f2e:	01 c0       	rjmp	.+2      	; 0x1f32 <__udivdi3_umoddi3>

00001f30 <__udivdi3>:
    1f30:	e8 94       	clt

00001f32 <__udivdi3_umoddi3>:
    1f32:	8f 92       	push	r8
    1f34:	9f 92       	push	r9
    1f36:	cf 93       	push	r28
    1f38:	df 93       	push	r29
    1f3a:	0e 94 a4 0f 	call	0x1f48	; 0x1f48 <__udivmod64>
    1f3e:	df 91       	pop	r29
    1f40:	cf 91       	pop	r28
    1f42:	9f 90       	pop	r9
    1f44:	8f 90       	pop	r8
    1f46:	08 95       	ret

00001f48 <__udivmod64>:
    1f48:	88 24       	eor	r8, r8
    1f4a:	99 24       	eor	r9, r9
    1f4c:	f4 01       	movw	r30, r8
    1f4e:	e4 01       	movw	r28, r8
    1f50:	b0 e4       	ldi	r27, 0x40	; 64
    1f52:	9f 93       	push	r25
    1f54:	aa 27       	eor	r26, r26
    1f56:	9a 15       	cp	r25, r10
    1f58:	8b 04       	cpc	r8, r11
    1f5a:	9c 04       	cpc	r9, r12
    1f5c:	ed 05       	cpc	r30, r13
    1f5e:	fe 05       	cpc	r31, r14
    1f60:	cf 05       	cpc	r28, r15
    1f62:	d0 07       	cpc	r29, r16
    1f64:	a1 07       	cpc	r26, r17
    1f66:	98 f4       	brcc	.+38     	; 0x1f8e <__udivmod64+0x46>
    1f68:	ad 2f       	mov	r26, r29
    1f6a:	dc 2f       	mov	r29, r28
    1f6c:	cf 2f       	mov	r28, r31
    1f6e:	fe 2f       	mov	r31, r30
    1f70:	e9 2d       	mov	r30, r9
    1f72:	98 2c       	mov	r9, r8
    1f74:	89 2e       	mov	r8, r25
    1f76:	98 2f       	mov	r25, r24
    1f78:	87 2f       	mov	r24, r23
    1f7a:	76 2f       	mov	r23, r22
    1f7c:	65 2f       	mov	r22, r21
    1f7e:	54 2f       	mov	r21, r20
    1f80:	43 2f       	mov	r20, r19
    1f82:	32 2f       	mov	r19, r18
    1f84:	22 27       	eor	r18, r18
    1f86:	b8 50       	subi	r27, 0x08	; 8
    1f88:	31 f7       	brne	.-52     	; 0x1f56 <__udivmod64+0xe>
    1f8a:	bf 91       	pop	r27
    1f8c:	27 c0       	rjmp	.+78     	; 0x1fdc <__udivmod64+0x94>
    1f8e:	1b 2e       	mov	r1, r27
    1f90:	bf 91       	pop	r27
    1f92:	bb 27       	eor	r27, r27
    1f94:	22 0f       	add	r18, r18
    1f96:	33 1f       	adc	r19, r19
    1f98:	44 1f       	adc	r20, r20
    1f9a:	55 1f       	adc	r21, r21
    1f9c:	66 1f       	adc	r22, r22
    1f9e:	77 1f       	adc	r23, r23
    1fa0:	88 1f       	adc	r24, r24
    1fa2:	99 1f       	adc	r25, r25
    1fa4:	88 1c       	adc	r8, r8
    1fa6:	99 1c       	adc	r9, r9
    1fa8:	ee 1f       	adc	r30, r30
    1faa:	ff 1f       	adc	r31, r31
    1fac:	cc 1f       	adc	r28, r28
    1fae:	dd 1f       	adc	r29, r29
    1fb0:	aa 1f       	adc	r26, r26
    1fb2:	bb 1f       	adc	r27, r27
    1fb4:	8a 14       	cp	r8, r10
    1fb6:	9b 04       	cpc	r9, r11
    1fb8:	ec 05       	cpc	r30, r12
    1fba:	fd 05       	cpc	r31, r13
    1fbc:	ce 05       	cpc	r28, r14
    1fbe:	df 05       	cpc	r29, r15
    1fc0:	a0 07       	cpc	r26, r16
    1fc2:	b1 07       	cpc	r27, r17
    1fc4:	48 f0       	brcs	.+18     	; 0x1fd8 <__udivmod64+0x90>
    1fc6:	8a 18       	sub	r8, r10
    1fc8:	9b 08       	sbc	r9, r11
    1fca:	ec 09       	sbc	r30, r12
    1fcc:	fd 09       	sbc	r31, r13
    1fce:	ce 09       	sbc	r28, r14
    1fd0:	df 09       	sbc	r29, r15
    1fd2:	a0 0b       	sbc	r26, r16
    1fd4:	b1 0b       	sbc	r27, r17
    1fd6:	21 60       	ori	r18, 0x01	; 1
    1fd8:	1a 94       	dec	r1
    1fda:	e1 f6       	brne	.-72     	; 0x1f94 <__udivmod64+0x4c>
    1fdc:	2e f4       	brtc	.+10     	; 0x1fe8 <__udivmod64+0xa0>
    1fde:	94 01       	movw	r18, r8
    1fe0:	af 01       	movw	r20, r30
    1fe2:	be 01       	movw	r22, r28
    1fe4:	cd 01       	movw	r24, r26
    1fe6:	00 0c       	add	r0, r0
    1fe8:	08 95       	ret

00001fea <__negdi2>:
    1fea:	60 95       	com	r22
    1fec:	70 95       	com	r23
    1fee:	80 95       	com	r24
    1ff0:	90 95       	com	r25
    1ff2:	30 95       	com	r19
    1ff4:	40 95       	com	r20
    1ff6:	50 95       	com	r21
    1ff8:	21 95       	neg	r18
    1ffa:	3f 4f       	sbci	r19, 0xFF	; 255
    1ffc:	4f 4f       	sbci	r20, 0xFF	; 255
    1ffe:	5f 4f       	sbci	r21, 0xFF	; 255
    2000:	6f 4f       	sbci	r22, 0xFF	; 255
    2002:	7f 4f       	sbci	r23, 0xFF	; 255
    2004:	8f 4f       	sbci	r24, 0xFF	; 255
    2006:	9f 4f       	sbci	r25, 0xFF	; 255
    2008:	08 95       	ret

0000200a <__prologue_saves__>:
    200a:	2f 92       	push	r2
    200c:	3f 92       	push	r3
    200e:	4f 92       	push	r4
    2010:	5f 92       	push	r5
    2012:	6f 92       	push	r6
    2014:	7f 92       	push	r7
    2016:	8f 92       	push	r8
    2018:	9f 92       	push	r9
    201a:	af 92       	push	r10
    201c:	bf 92       	push	r11
    201e:	cf 92       	push	r12
    2020:	df 92       	push	r13
    2022:	ef 92       	push	r14
    2024:	ff 92       	push	r15
    2026:	0f 93       	push	r16
    2028:	1f 93       	push	r17
    202a:	cf 93       	push	r28
    202c:	df 93       	push	r29
    202e:	cd b7       	in	r28, 0x3d	; 61
    2030:	de b7       	in	r29, 0x3e	; 62
    2032:	ca 1b       	sub	r28, r26
    2034:	db 0b       	sbc	r29, r27
    2036:	0f b6       	in	r0, 0x3f	; 63
    2038:	f8 94       	cli
    203a:	de bf       	out	0x3e, r29	; 62
    203c:	0f be       	out	0x3f, r0	; 63
    203e:	cd bf       	out	0x3d, r28	; 61
    2040:	09 94       	ijmp

00002042 <__epilogue_restores__>:
    2042:	2a 88       	ldd	r2, Y+18	; 0x12
    2044:	39 88       	ldd	r3, Y+17	; 0x11
    2046:	48 88       	ldd	r4, Y+16	; 0x10
    2048:	5f 84       	ldd	r5, Y+15	; 0x0f
    204a:	6e 84       	ldd	r6, Y+14	; 0x0e
    204c:	7d 84       	ldd	r7, Y+13	; 0x0d
    204e:	8c 84       	ldd	r8, Y+12	; 0x0c
    2050:	9b 84       	ldd	r9, Y+11	; 0x0b
    2052:	aa 84       	ldd	r10, Y+10	; 0x0a
    2054:	b9 84       	ldd	r11, Y+9	; 0x09
    2056:	c8 84       	ldd	r12, Y+8	; 0x08
    2058:	df 80       	ldd	r13, Y+7	; 0x07
    205a:	ee 80       	ldd	r14, Y+6	; 0x06
    205c:	fd 80       	ldd	r15, Y+5	; 0x05
    205e:	0c 81       	ldd	r16, Y+4	; 0x04
    2060:	1b 81       	ldd	r17, Y+3	; 0x03
    2062:	aa 81       	ldd	r26, Y+2	; 0x02
    2064:	b9 81       	ldd	r27, Y+1	; 0x01
    2066:	ce 0f       	add	r28, r30
    2068:	d1 1d       	adc	r29, r1
    206a:	0f b6       	in	r0, 0x3f	; 63
    206c:	f8 94       	cli
    206e:	de bf       	out	0x3e, r29	; 62
    2070:	0f be       	out	0x3f, r0	; 63
    2072:	cd bf       	out	0x3d, r28	; 61
    2074:	ed 01       	movw	r28, r26
    2076:	08 95       	ret

00002078 <__cmpdi2_s8>:
    2078:	00 24       	eor	r0, r0
    207a:	a7 fd       	sbrc	r26, 7
    207c:	00 94       	com	r0
    207e:	2a 17       	cp	r18, r26
    2080:	30 05       	cpc	r19, r0
    2082:	40 05       	cpc	r20, r0
    2084:	50 05       	cpc	r21, r0
    2086:	60 05       	cpc	r22, r0
    2088:	70 05       	cpc	r23, r0
    208a:	80 05       	cpc	r24, r0
    208c:	90 05       	cpc	r25, r0
    208e:	08 95       	ret

00002090 <strcmp>:
    2090:	fb 01       	movw	r30, r22
    2092:	dc 01       	movw	r26, r24
    2094:	8d 91       	ld	r24, X+
    2096:	01 90       	ld	r0, Z+
    2098:	80 19       	sub	r24, r0
    209a:	01 10       	cpse	r0, r1
    209c:	d9 f3       	breq	.-10     	; 0x2094 <strcmp+0x4>
    209e:	99 0b       	sbc	r25, r25
    20a0:	08 95       	ret

000020a2 <_exit>:
    20a2:	f8 94       	cli

000020a4 <__stop_program>:
    20a4:	ff cf       	rjmp	.-2      	; 0x20a4 <__stop_program>
